(dp0
S'mutant987'
p1
F0.0010180723658488485
sS'mutant986'
p2
F0.00038000561921499297
sS'mutant358'
p3
F0.0005980324420389343
sS'mutant359'
p4
F0.0005210064399983058
sS'mutant828'
p5
F0.00038793241152478735
sS'mutant829'
p6
F0.00017703169491874198
sS'mutant981'
p7
F0.00020233337542273222
sS'mutant980'
p8
F0.0004188388946720666
sS'mutant824'
p9
F0.0018816923845704908
sS'mutant825'
p10
F0.0001876007513318012
sS'mutant826'
p11
F0.0005459878460655366
sS'mutant827'
p12
F0.0008661021456065274
sS'mutant820'
p13
F0.0008415210825852456
sS'mutant357'
p14
F0.001924368953268677
sS'mutant822'
p15
F0.0002426879544544129
sS'mutant355'
p16
F0.0001789533415392982
sS'mutant49'
p17
F0.0010277606675608195
sS'mutant48'
p18
F0.002163293683091167
sS'mutant41'
p19
F0.00037271937577871726
sS'mutant40'
p20
F0.0005480696299044725
sS'mutant43'
p21
F0.0002301171828116076
sS'mutant42'
p22
F0.0022945261335533193
sS'mutant45'
p23
F0.00038529014742152257
sS'mutant44'
p24
F0.0002521360503388143
sS'mutant47'
p25
F0.00029713460870350584
sS'mutant46'
p26
F0.0002550185202696487
sS'mutant1065'
p27
F0.0006579237617129366
sS'mutant169'
p28
F0.0014185755490164413
sS'mutant168'
p29
F0.00015533310182829464
sS'mutant165'
p30
F0.00028056040660120844
sS'mutant164'
p31
F0.00047776939103579073
sS'mutant167'
p32
F0.0008134970693688008
sS'mutant166'
p33
F0.000563602940087302
sS'mutant161'
p34
F0.0008736285948703726
sS'mutant160'
p35
F0.0008394392987463097
sS'mutant163'
p36
F0.00044446084961281623
sS'mutant162'
p37
F0.0006004345003146296
sS'mutant763'
p38
F0.0006123647230839161
sS'mutant762'
p39
F0.0002618243520507853
sS'mutant761'
p40
F0.0002184271658698906
sS'mutant760'
p41
F0.00028616520924449744
sS'mutant767'
p42
F0.0021005198934863304
sS'mutant766'
p43
F0.0010720386084428024
sS'mutant765'
p44
F0.000885638886248849
sS'mutant764'
p45
F0.0005010693563100349
sS'mutant769'
p46
F0.0014563679325540469
sS'mutant768'
p47
F0.0012587586050735154
sS'mutant561'
p48
F0.000150048573621765
sS'mutant560'
p49
F0.00019032308404425585
sS'mutant563'
p50
F0.00020481550230761736
sS'mutant562'
p51
F0.0007469600551320416
sS'mutant565'
p52
F0.0011625962054365145
sS'mutant564'
p53
F0.00027511574117629914
sS'mutant567'
p54
F0.0005744122023279307
sS'mutant566'
p55
F0.0015670227504544093
sS'mutant569'
p56
F0.00010729193631438907
sS'mutant568'
p57
F0.001169402037217651
sS'mutant1071'
p58
F0.0018867367069494508
sS'mutant1070'
p59
F0.00010408919194679537
sS'mutant1073'
p60
F0.001231535277948969
sS'mutant1072'
p61
F0.0003077837337257549
sS'mutant1075'
p62
F0.00034813831275743557
sS'mutant1074'
p63
F0.0012413036482701297
sS'mutant1077'
p64
F0.0007541662299591274
sS'mutant1076'
p65
F0.001503688480585244
sS'mutant1079'
p66
F0.0018015437067714583
sS'mutant1078'
p67
F0.0010042204964590057
sS'mutant783'
p68
F0.002006038934642316
sS'mutant782'
p69
F0.0001915241131821035
sS'mutant785'
p70
F0.0004940233187013288
sS'mutant784'
p71
F0.00044846428007230837
sS'mutant787'
p72
F0.0008745894181806506
sS'mutant786'
p73
F0.0005122789615966129
sS'mutant1479'
p74
F0.0002768772505784757
sS'mutant1478'
p75
F0.0003037803032662628
sS'mutant1475'
p76
F0.0009555387820715815
sS'mutant1474'
p77
F0.00042716603002781024
sS'mutant1477'
p78
F0.0002927308351980645
sS'mutant1476'
p79
F0.0015978491649924988
sS'mutant1471'
p80
F0.0005616812934667458
sS'mutant1470'
p81
F0.0015029678631025352
sS'mutant1473'
p82
F0.0002673490860848844
sS'mutant1472'
p83
F0.0009458504803596105
sS'mutant305'
p84
F0.0004934628384369999
sS'mutant304'
p85
F0.0003014583135997574
sS'mutant307'
p86
F0.0014367511233025355
sS'mutant306'
p87
F0.00022291100798452177
sS'mutant301'
p88
F0.0008805945638698889
sS'mutant300'
p89
F0.00010585070134897191
sS'mutant303'
p90
F5.1964527364207844e-05
sS'mutant302'
p91
F0.0003014583135997574
sS'mutant309'
p92
F0.0003556647620212808
sS'mutant308'
p93
F0.00021474400984715784
sS'mutant1277'
p94
F0.0005533541581110022
sS'mutant1276'
p95
F0.0019764936178512642
sS'mutant1275'
p96
F0.0002426879544544129
sS'mutant1274'
p97
F0.0006503973124490914
sS'mutant1273'
p98
F0.0003008177647262386
sS'mutant1272'
p99
F0.0009645064663008438
sS'mutant1271'
p100
F0.0010330451957673492
sS'mutant1270'
p101
F0.0019705685407712162
sS'mutant411'
p102
F0.00028824699308343334
sS'mutant410'
p103
F0.0003723991013419579
sS'mutant413'
p104
F0.00017478977386142637
sS'mutant412'
p105
F0.0006832254422169268
sS'mutant415'
p106
F0.001540760246640141
sS'mutant414'
p107
F0.0002759964958773874
sS'mutant1279'
p108
F0.001050820427007494
sS'mutant1278'
p109
F0.00046031443423240505
sS'mutant1109'
p110
F0.0002966541970483668
sS'mutant1108'
p111
F0.0004931425640002405
sS'mutant1101'
p112
F0.0005418242783876648
sS'mutant1100'
p113
F0.0005815383085458267
sS'mutant1103'
p114
F0.0011812521913777477
sS'mutant1102'
p115
F0.001255956203751871
sS'mutant1105'
p116
F0.0011178378528993924
sS'mutant1104'
p117
F0.0013639687575489686
sS'mutant1107'
p118
F0.0004463824962333725
sS'mutant1106'
p119
F0.0003707176605489712
sS'mutant1299'
p120
F0.0011677205964246643
sS'mutant1298'
p121
F0.0015422014816055582
sS'mutant1291'
p122
F0.000532536319721643
sS'mutant1290'
p123
F0.00031755210404691575
sS'mutant1293'
p124
F0.0004990676410802889
sS'mutant1292'
p125
F0.0003020988624732761
sS'mutant1295'
p126
F0.0016916095063538045
sS'mutant1294'
p127
F0.0009563394681634799
sS'mutant1297'
p128
F0.0011310491734157165
sS'mutant1296'
p129
F0.0006352643453122111
sS'mutant38'
p130
F0.00018960246656154727
sS'mutant39'
p131
F0.0011159162062788362
sS'mutant34'
p132
F0.0001285901863588872
sS'mutant35'
p133
F8.85558817639659e-05
sS'mutant36'
p134
F0.0006654502109767818
sS'mutant37'
p135
F0.0008338344961030207
sS'mutant30'
p136
F6.901914112164432e-05
sS'mutant31'
p137
F0.00017430936220628733
sS'mutant32'
p138
F0.0005826592690744845
sS'mutant33'
p139
F0.00033140397343675847
sS'mutant178'
p140
F0.00039802105628270753
sS'mutant179'
p141
F0.0006311808462435292
sS'mutant176'
p142
F0.0004933027012186202
sS'mutant177'
p143
F0.0008066111689784743
sS'mutant174'
p144
F0.0007373518220292604
sS'mutant175'
p145
F0.0003397311087925021
sS'mutant172'
p146
F0.0008007661605076157
sS'mutant173'
p147
F0.0008934055413402636
sS'mutant170'
p148
F7.070058191463101e-05
sS'mutant171'
p149
F0.0015090530774009632
sS'mutant1455'
p150
F0.000461355326151873
sS'mutant1454'
p151
F0.0011133540107847613
sS'mutant899'
p152
F0.0009259934652805296
sS'mutant898'
p153
F0.0003412524123671091
sS'mutant774'
p154
F0.0008416812198036253
sS'mutant775'
p155
F0.0007363109301097925
sS'mutant776'
p156
F0.00010793248518790782
sS'mutant777'
p157
F0.0002987359808873027
sS'mutant770'
p158
F0.0003823276088814984
sS'mutant771'
p159
F0.00017871313571172866
sS'mutant772'
p160
F0.0001359564984043527
sS'mutant773'
p161
F0.0004927422209542913
sS'mutant778'
p162
F0.0008097338447368781
sS'mutant779'
p163
F0.00044846428007230837
sS'mutant572'
p164
F0.0002952930306921395
sS'mutant573'
p165
F0.0017675145478657753
sS'mutant570'
p166
F0.00032235622059830627
sS'mutant571'
p167
F0.00011401769948633585
sS'mutant576'
p168
F0.0006182097315547746
sS'mutant577'
p169
F0.00034637680335525907
sS'mutant574'
p170
F0.00041331416063796747
sS'mutant575'
p171
F0.00046535875661136517
sS'mutant578'
p172
F0.0023231906956432827
sS'mutant579'
p173
F0.001548366764513176
sS'mutant897'
p174
F0.00024893330597122065
sS'mutant1044'
p175
F0.0007972431417032627
sS'mutant1045'
p176
F0.00029537309930132935
sS'mutant1046'
p177
F0.0007659363155100343
sS'mutant1047'
p178
F0.00027831848554389285
sS'mutant1040'
p179
F0.0009920500678621497
sS'mutant1041'
p180
F0.0006357447569673502
sS'mutant1042'
p181
F0.0005178837642399018
sS'mutant1043'
p182
F0.0009913294503794412
sS'mutant792'
p183
F9.039745977533229e-05
sS'mutant793'
p184
F0.001391672496328654
sS'mutant790'
p185
F0.0006393478443808931
sS'mutant791'
p186
F0.0011599539413332497
sS'mutant1048'
p187
F0.00011930222769286546
sS'mutant1049'
p188
F0.000819982626713178
sS'mutant794'
p189
F0.0015757502288561021
sS'mutant795'
p190
F0.00029697447148512615
sS'mutant1459'
p191
F0.000461355326151873
sS'mutant1458'
p192
F0.0001259479222556224
sS'mutant1440'
p193
F0.0012754128757850028
sS'mutant1441'
p194
F0.0004157962875228526
sS'mutant1442'
p195
F0.0017956986983005997
sS'mutant1443'
p196
F0.001671432216837964
sS'mutant1444'
p197
F0.0002932913154623934
sS'mutant1445'
p198
F0.0005116384127230941
sS'mutant1446'
p199
F0.0001048898780386938
sS'mutant1447'
p200
F0.000826548252666745
sS'mutant1448'
p201
F0.0012296936999376025
sS'mutant1449'
p202
F0.0006311007776343393
sS'mutant710'
p203
F0.00027135251654437654
sS'mutant316'
p204
F0.00048081199818500475
sS'mutant317'
p205
F0.0013707745893301053
sS'mutant314'
p206
F0.0002765569761417163
sS'mutant315'
p207
F0.00012674860834752084
sS'mutant312'
p208
F0.0007410349780519932
sS'mutant313'
p209
F0.001030082657227325
sS'mutant310'
p210
F0.000916625438005318
sS'mutant311'
p211
F0.0006705746019649317
sS'mutant716'
p212
F0.0002688703896594914
sS'mutant318'
p213
F0.00021962819500773823
sS'mutant717'
p214
F0.000126668539738331
sS'mutant714'
p215
F0.0014815895444488473
sS'mutant247'
p216
F0.00029809543201378397
sS'mutant8'
p217
F0.0006869085982396596
sS'mutant9'
p218
F0.0024617894581509003
sS'mutant408'
p219
F0.001024958266239175
sS'mutant409'
p220
F0.0005559964222142669
sS'mutant958'
p221
F0.00020009145436541663
sS'mutant959'
p222
F0.00022154984162829446
sS'mutant402'
p223
F0.0008051699340130571
sS'mutant403'
p224
F0.0003771231492841586
sS'mutant400'
p225
F0.00030922496869117207
sS'mutant3'
p226
F0.00026366593006215165
sS'mutant4'
p227
F0.0005602400585013286
sS'mutant5'
p228
F0.0009054959013279299
sS'mutant6'
p229
F0.0007379923709027792
sS'mutant7'
p230
F0.0010139888667801667
sS'mutant1138'
p231
F0.0012968712630478806
sS'mutant1139'
p232
F0.00019424644589455812
sS'mutant1134'
p233
F0.0012236885542483643
sS'mutant1135'
p234
F0.00033340568866650457
sS'mutant1136'
p235
F0.0005491905904331303
sS'mutant1137'
p236
F0.00024637111047714566
sS'mutant1130'
p237
F0.00037271937577871726
sS'mutant1131'
p238
F0.0005280524776070119
sS'mutant1132'
p239
F0.0010889330849818593
sS'mutant1133'
p240
F0.0001888818490788387
sS'mutant939'
p241
F0.0002949727562553801
sS'mutant936'
p242
F0.00022195018467424367
sS'mutant937'
p243
F0.00010785241657871797
sS'mutant29'
p244
F0.0008949268449148707
sS'mutant28'
p245
F0.0013342633035395369
sS'mutant27'
p246
F0.0003958592038345818
sS'mutant26'
p247
F0.00040995127905199406
sS'mutant25'
p248
F0.0004195595121547752
sS'mutant24'
p249
F0.00036503278929649237
sS'mutant23'
p250
F0.0004243636287061657
sS'mutant22'
p251
F0.0002608635287405072
sS'mutant21'
p252
F0.00040146400647787073
sS'mutant20'
p253
F0.0010981409750386911
sS'mutant1350'
p254
F0.0003461365975276895
sS'mutant1351'
p255
F0.0009267140827632381
sS'mutant1352'
p256
F0.0018559102924113615
sS'mutant1353'
p257
F0.00036183004492889865
sS'mutant1354'
p258
F0.0010876519872348217
sS'mutant1355'
p259
F0.00024204740558089415
sS'mutant1356'
p260
F7.262222853518723e-05
sS'mutant1357'
p261
F0.0016314779808522327
sS'mutant143'
p262
F0.001262601898314628
sS'mutant142'
p263
F0.000573291241799273
sS'mutant141'
p264
F0.00013659704727787147
sS'mutant140'
p265
F0.0012974317433122095
sS'mutant147'
p266
F0.0002737545748200718
sS'mutant146'
p267
F0.0012931080384159578
sS'mutant145'
p268
F0.0019683266197139003
sS'mutant144'
p269
F0.001370294177674966
sS'mutant149'
p270
F0.0007287844808459473
sS'mutant148'
p271
F0.0016763964706077343
sS'mutant1051'
p272
F0.0002317986236045943
sS'mutant434'
p273
F0.0014200167839818585
sS'mutant1057'
p274
F0.0002979352947954043
sS'mutant1056'
p275
F0.0005209263713891159
sS'mutant451'
p276
F0.0008345551135857293
sS'mutant1055'
p277
F0.0005775348780863346
sS'mutant1054'
p278
F0.000522928086618862
sS'mutant450'
p279
F0.0009025333627879057
sS'mutant547'
p280
F0.0015932852542686778
sS'mutant546'
p281
F0.002291083183358156
sS'mutant545'
p282
F0.0003183527901388141
sS'mutant544'
p283
F0.0004632769727724292
sS'mutant543'
p284
F0.0005279724089978221
sS'mutant542'
p285
F0.0025806913427978166
sS'mutant541'
p286
F0.00023227903525973337
sS'mutant540'
p287
F0.0004720044511741221
sS'mutant549'
p288
F0.0002092192758130587
sS'mutant548'
p289
F0.00043965673306142566
sS'mutant1457'
p290
F0.000629179131013783
sS'mutant1456'
p291
F0.0019111576327523528
sS'mutant329'
p292
F0.0007671373446478818
sS'mutant328'
p293
F0.0006559220464831905
sS'mutant1453'
p294
F0.000597151687337846
sS'mutant1452'
p295
F0.00013003142132430437
sS'mutant1451'
p296
F6.933941555840368e-05
sS'mutant1450'
p297
F0.0003323647967470366
sS'mutant323'
p298
F0.0012458675589939506
sS'mutant322'
p299
F5.708891835235777e-05
sS'mutant321'
p300
F0.0006407890793463102
sS'mutant320'
p301
F0.0008400798476198285
sS'mutant327'
p302
F0.0005185243131134206
sS'mutant326'
p303
F6.925934694921385e-05
sS'mutant325'
p304
F0.0005202858225155972
sS'mutant324'
p305
F0.0005442263366633601
sS'mutant1059'
p306
F0.0012154414875018105
sS'mutant1058'
p307
F0.001223288211202415
sS'mutant439'
p308
F0.00019536740642321594
sS'mutant438'
p309
F0.002187954814721639
sS'mutant437'
p310
F0.0010436943207895982
sS'mutant436'
p311
F0.0003383699424362748
sS'mutant435'
p312
F0.0014811091327937083
sS'mutant1050'
p313
F0.00031907340762152276
sS'mutant433'
p314
F0.0008173403626099132
sS'mutant432'
p315
F0.0007201370710534443
sS'mutant431'
p316
F0.0010312836863651726
sS'mutant430'
p317
F0.00010368884890084616
sS'mutant1123'
p318
F0.0014538858056691618
sS'mutant1122'
p319
F0.00040450661362708475
sS'mutant1121'
p320
F0.000308264145380894
sS'mutant1120'
p321
F0.0004806518609666251
sS'mutant1127'
p322
F0.0006757790615622715
sS'mutant1126'
p323
F0.0001930454167567105
sS'mutant1125'
p324
F0.00018207601729770204
sS'mutant1124'
p325
F0.0006540804684718242
sS'mutant1129'
p326
F0.0003736801990889954
sS'mutant1128'
p327
F0.0021523242836321587
sS'mutant459'
p328
F0.0026967107575138986
sS'mutant458'
p329
F0.0015175403499750866
sS'mutant645'
p330
F9.848438930350638e-05
sS'mutant1053'
p331
F0.00013091217602539265
sS'mutant646'
p332
F0.001079965400752597
sS'mutant1052'
p333
F0.00017174716671221235
sS'mutant640'
p334
F0.000178552998493349
sS'mutant12'
p335
F0.002486850932827321
sS'mutant13'
p336
F0.0015669426818452196
sS'mutant10'
p337
F0.0003361280213789592
sS'mutant11'
p338
F0.0014787871431272029
sS'mutant16'
p339
F0.0011762078689987877
sS'mutant17'
p340
F0.0003442950195163231
sS'mutant14'
p341
F0.00045262784775018016
sS'mutant15'
p342
F0.0007702600204062858
sS'mutant18'
p343
F0.0002763167703141468
sS'mutant19'
p344
F0.0010972602203376028
sS'mutant971'
p345
F0.000283843219577992
sS'mutant789'
p346
F0.0013828649493177715
sS'mutant788'
p347
F0.0010091046816195861
sS'mutant154'
p348
F0.00041011141627037375
sS'mutant155'
p349
F0.0004105918279255128
sS'mutant156'
p350
F0.0002016928265492135
sS'mutant157'
p351
F0.0009360821100384498
sS'mutant150'
p352
F0.00030666277319709714
sS'mutant151'
p353
F0.0002598226368210392
sS'mutant152'
p354
F0.001602813418762269
sS'mutant153'
p355
F0.00019913063105513854
sS'mutant158'
p356
F0.0004538288768880278
sS'mutant159'
p357
F0.0010301627258365149
sS'mutant781'
p358
F0.0014596507455308305
sS'mutant780'
p359
F0.00039505851774268336
sS'mutant558'
p360
F0.0005001886016089466
sS'mutant559'
p361
F0.00039097501867400137
sS'mutant550'
p362
F0.0005525534720191037
sS'mutant551'
p363
F0.00034181289263143804
sS'mutant552'
p364
F0.0023771569382372367
sS'mutant553'
p365
F0.0007593706895564671
sS'mutant554'
p366
F0.00019937083688270805
sS'mutant555'
p367
F0.00042820692194727816
sS'mutant556'
p368
F0.000934400669245463
sS'mutant557'
p369
F0.0011372144563233343
sS'mutant338'
p370
F0.0003238775241729133
sS'mutant339'
p371
F0.0007791476360263583
sS'mutant888'
p372
F0.002520319611468675
sS'mutant889'
p373
F0.00018992274099830663
sS'mutant334'
p374
F0.0009062965874198283
sS'mutant335'
p375
F0.0003494194105044731
sS'mutant336'
p376
F0.00017406915637871779
sS'mutant337'
p377
F0.0007584899348553789
sS'mutant330'
p378
F0.0007959620439562253
sS'mutant331'
p379
F6.42950931794436e-05
sS'mutant332'
p380
F9.279951805102756e-05
sS'mutant333'
p381
F0.0004584728562210387
sS'mutant1332'
p382
F0.0011058275615209161
sS'mutant1333'
p383
F0.0006307004345883901
sS'mutant1330'
p384
F0.000892684923857555
sS'mutant1331'
p385
F7.57449042935911e-05
sS'mutant1336'
p386
F0.00021594503898500548
sS'mutant1337'
p387
F0.0018267653186662587
sS'mutant1334'
p388
F0.00028240198461257484
sS'mutant1335'
p389
F0.0006744178952060441
sS'mutant1484'
p390
F0.0010862107522694045
sS'mutant1485'
p391
F0.00048569618334558517
sS'mutant1338'
p392
F0.000360148604135912
sS'mutant1339'
p393
F0.00046183573780701206
sS'mutant1480'
p394
F0.00011545893445175301
sS'mutant1481'
p395
F0.00041971964937315484
sS'mutant1482'
p396
F0.000410511759316323
sS'mutant1483'
p397
F0.00017551039134413497
sS'mutant420'
p398
F8.10294325001207e-05
sS'mutant421'
p399
F0.0006220530247958871
sS'mutant422'
p400
F0.0016044948595552557
sS'mutant423'
p401
F0.0007705802948430451
sS'mutant424'
p402
F0.0019434252822558595
sS'mutant425'
p403
F0.00024404912081064023
sS'mutant426'
p404
F0.0002871260325547755
sS'mutant427'
p405
F0.0004280467847288985
sS'mutant428'
p406
F0.0002789590344174116
sS'mutant1027'
p407
F0.00012394620702587634
sS'mutant1024'
p408
F0.0003284414348967343
sS'mutant1025'
p409
F0.0001524506318974603
sS'mutant1022'
p410
F0.00013315409708270824
sS'mutant1023'
p411
F0.0006687330239535653
sS'mutant1020'
p412
F0.0015229049467908062
sS'mutant1021'
p413
F0.00030938510590955177
sS'mutant1156'
p414
F0.0025461817722369946
sS'mutant1157'
p415
F0.0008012465721627548
sS'mutant1154'
p416
F0.00036231045658403774
sS'mutant1155'
p417
F0.00019969111131946742
sS'mutant1152'
p418
F0.0006035571760730334
sS'mutant1153'
p419
F0.0005121988929874231
sS'mutant1150'
p420
F0.00018976260377992694
sS'mutant1151'
p421
F0.002412066851844008
sS'mutant1158'
p422
F0.002592141153911964
sS'mutant1159'
p423
F0.00047288520587521036
sS'mutant240'
p424
F0.000358627300561305
sS'mutant241'
p425
F0.0007571287684991515
sS'mutant887'
p426
F0.0015027276572749657
sS'mutant419'
p427
F0.00030530160684086983
sS'mutant529'
p428
F0.00029249062937049497
sS'mutant528'
p429
F0.0003055418126684393
sS'mutant418'
p430
F0.0011767683492631166
sS'mutant525'
p431
F0.00033500706085030143
sS'mutant524'
p432
F0.00015261076911584
sS'mutant527'
p433
F0.0002586216076831916
sS'mutant526'
p434
F0.001533634140422245
sS'mutant521'
p435
F0.0006879494901591276
sS'mutant520'
p436
F0.00014956816196662597
sS'mutant523'
p437
F0.0006484756658285351
sS'mutant522'
p438
F0.00022090929275477573
sS'mutant948'
p439
F0.0006845866085731542
sS'mutant943'
p440
F0.00026062332291293763
sS'mutant942'
p441
F0.0008506489040328877
sS'mutant941'
p442
F0.0009685899653695258
sS'mutant940'
p443
F0.001964883669518737
sS'mutant947'
p444
F0.0005690476055122113
sS'mutant946'
p445
F0.00020913920720386884
sS'mutant631'
p446
F0.0003394909029649326
sS'mutant630'
p447
F0.0008575348044232142
sS'mutant633'
p448
F0.00043965673306142566
sS'mutant632'
p449
F0.001000537340436273
sS'mutant635'
p450
F0.00022851581062781077
sS'mutant634'
p451
F0.0015320327682384481
sS'mutant189'
p452
F0.0008724275657325249
sS'mutant188'
p453
F0.0001054503583030227
sS'mutant639'
p454
F0.0005567971083061654
sS'mutant638'
p455
F0.0004043464764087051
sS'mutant185'
p456
F0.0011718841641025362
sS'mutant416'
p457
F0.0007145322684101552
sS'mutant183'
p458
F0.0004519872988766614
sS'mutant182'
p459
F0.0010886128105450999
sS'mutant181'
p460
F8.295107912067693e-05
sS'mutant180'
p461
F0.000433411381544618
sS'mutant1493'
p462
F0.0001930454167567105
sS'mutant858'
p463
F0.0002961737853932278
sS'mutant1323'
p464
F0.0005785757700058026
sS'mutant1322'
p465
F0.00025205598172962446
sS'mutant1325'
p466
F0.0018152354389429214
sS'mutant1324'
p467
F0.00034997989076880197
sS'mutant1327'
p468
F0.0003651128579056822
sS'mutant1494'
p469
F0.0002569401668902049
sS'mutant851'
p470
F0.0007941204659448588
sS'mutant1328'
p471
F0.0010291218339170468
sS'mutant853'
p472
F0.0015343547579049536
sS'mutant1498'
p473
F0.00044974537781934583
sS'mutant855'
p474
F0.00015813550314993911
sS'mutant854'
p475
F0.0016725531773666218
sS'mutant857'
p476
F0.00196848675693228
sS'mutant856'
p477
F0.0005536744325477615
sS'mutant455'
p478
F0.0013646893750316772
sS'mutant454'
p479
F0.0007757847544403849
sS'mutant457'
p480
F0.0018385354042171657
sS'mutant456'
p481
F0.000295533236519709
sS'mutant1039'
p482
F0.00046079484588754414
sS'mutant1038'
p483
F0.0009546580273704932
sS'mutant453'
p484
F0.0008153386473801671
sS'mutant452'
p485
F0.0011782896528377237
sS'mutant1035'
p486
F0.0011412979553920163
sS'mutant1034'
p487
F0.0011873374056761757
sS'mutant1037'
p488
F0.00020873886415791963
sS'mutant1036'
p489
F0.0002442092580290199
sS'mutant1031'
p490
F0.0006758591301714613
sS'mutant1030'
p491
F0.0008656217339513883
sS'mutant1033'
p492
F0.0015034482747576744
sS'mutant1032'
p493
F0.00017422929359709748
sS'mutant1145'
p494
F0.00026654839999298597
sS'mutant1144'
p495
F0.0003086644884268432
sS'mutant1147'
p496
F0.00032964246403458197
sS'mutant1146'
p497
F0.0016350009996565858
sS'mutant1141'
p498
F0.0008451241699987885
sS'mutant1140'
p499
F0.0004760879502428041
sS'mutant1143'
p500
F0.0009070172049025369
sS'mutant1142'
p501
F0.0004054674369373629
sS'mutant1149'
p502
F0.0005929881196599742
sS'mutant1148'
p503
F0.0006037173132914131
sS'mutant953'
p504
F7.006003304111226e-05
sS'mutant213'
p505
F0.00031194730140362675
sS'mutant212'
p506
F0.0002867256895088263
sS'mutant747'
p507
F0.0010118270143320408
sS'mutant746'
p508
F0.00039986263429407393
sS'mutant741'
p509
F0.00020641687449141422
sS'mutant740'
p510
F0.00029745488314026524
sS'mutant743'
p511
F0.0003109064094841588
sS'mutant742'
p512
F0.0022770711767499336
sS'mutant190'
p513
F0.000562081636512695
sS'mutant191'
p514
F8.295107912067693e-05
sS'mutant620'
p515
F0.0005022703854478826
sS'mutant621'
p516
F0.0009002914417305902
sS'mutant194'
p517
F0.001249310509189114
sS'mutant195'
p518
F0.00010400912333760552
sS'mutant196'
p519
F0.0004919415348623928
sS'mutant197'
p520
F0.0007419157327530814
sS'mutant895'
p521
F0.0002312381433402654
sS'mutant538'
p522
F0.0001028080941997579
sS'mutant539'
p523
F0.001998112142332522
sS'mutant536'
p524
F0.00011489845418742412
sS'mutant537'
p525
F0.00032924212098863273
sS'mutant534'
p526
F0.0004917813976440131
sS'mutant535'
p527
F0.0012678864265211576
sS'mutant532'
p528
F0.0015043290294587627
sS'mutant533'
p529
F0.00013955958581789564
sS'mutant530'
p530
F0.00021026016773252664
sS'mutant531'
p531
F0.0004447811240495756
sS'mutant894'
p532
F0.00039153549893833025
sS'mutant964'
p533
F0.0004945837989656577
sS'mutant1316'
p534
F0.0004961851711494545
sS'mutant1317'
p535
F0.0006126049289114857
sS'mutant963'
p536
F0.0009543377529337339
sS'mutant962'
p537
F0.0006733770032865762
sS'mutant622'
p538
F0.0007016412223305906
sS'mutant623'
p539
F0.0006467942250355485
sS'mutant192'
p540
F0.0005980324420389343
sS'mutant193'
p541
F0.0007927592995886315
sS'mutant626'
p542
F0.00013131251907134186
sS'mutant627'
p543
F0.001744214582591531
sS'mutant624'
p544
F0.0004058677799833121
sS'mutant625'
p545
F0.000856573981112936
sS'mutant198'
p546
F9.984555565973371e-05
sS'mutant199'
p547
F0.0008012465721627548
sS'mutant628'
p548
F0.0012531538024302263
sS'mutant629'
p549
F7.55847670752114e-05
sS'mutant896'
p550
F0.00014012006608222452
sS'mutant1314'
p551
F0.0009717126411279297
sS'mutant1315'
p552
F0.00024292816028198243
sS'mutant848'
p553
F0.0005819386515917759
sS'mutant849'
p554
F0.0009458504803596105
sS'mutant1310'
p555
F0.0007744235880841575
sS'mutant1311'
p556
F0.0003364482958157186
sS'mutant1312'
p557
F0.00028152122991148657
sS'mutant1313'
p558
F0.001827165661712208
sS'mutant842'
p559
F0.0002583013332464322
sS'mutant846'
p560
F0.0008185413917477609
sS'mutant840'
p561
F6.245351516807722e-05
sS'mutant841'
p562
F0.0006367856488868181
sS'mutant1318'
p563
F0.0004509464069571935
sS'mutant1319'
p564
F0.0005495909334790796
sS'mutant844'
p565
F0.00037015718028464233
sS'mutant845'
p566
F6.549612231729124e-05
sS'mutant891'
p567
F0.0007162937778123318
sS'mutant998'
p568
F0.000430849186050543
sS'mutant999'
p569
F0.0016589415138043486
sS'mutant990'
p570
F8.895622480991512e-05
sS'mutant991'
p571
F0.00017535025412575528
sS'mutant992'
p572
F8.831567593639638e-05
sS'mutant993'
p573
F0.0006225334364510261
sS'mutant994'
p574
F0.00021818696004232107
sS'mutant995'
p575
F0.000351981605998548
sS'mutant996'
p576
F0.0010721186770519923
sS'mutant997'
p577
F0.00019096363291777458
sS'mutant1000'
p578
F7.806689396009652e-05
sS'mutant1001'
p579
F0.00034221323567738723
sS'mutant444'
p580
F0.000613485683612574
sS'mutant1003'
p581
F0.00048265357619637115
sS'mutant1004'
p582
F0.00025013433510906826
sS'mutant1005'
p583
F0.0005174033525847629
sS'mutant440'
p584
F0.0005604802643288981
sS'mutant1007'
p585
F0.00020857872693953996
sS'mutant1008'
p586
F0.0009994964485168052
sS'mutant1009'
p587
F0.00043413199902732656
sS'mutant890'
p588
F0.0014881551704024145
sS'mutant448'
p589
F0.00047120376508222366
sS'mutant449'
p590
F0.0009174261240972164
sS'mutant893'
p591
F0.0003049012637949206
sS'mutant892'
p592
F0.0014915180519883878
sS'mutant1178'
p593
F0.0015044090980679524
sS'mutant1179'
p594
F0.0004643178646918972
sS'mutant1170'
p595
F0.0003157905946447392
sS'mutant1171'
p596
F0.00039241625363941853
sS'mutant1172'
p597
F0.0002772775936244249
sS'mutant1173'
p598
F0.0002454903557760574
sS'mutant1174'
p599
F6.54160537081014e-05
sS'mutant1175'
p600
F0.0003797654133874234
sS'mutant1176'
p601
F0.000375922120146311
sS'mutant1177'
p602
F0.0007051642411349437
sS'mutant1410'
p603
F0.0005150813629182574
sS'mutant446'
p604
F0.001476224947633128
sS'mutant447'
p605
F0.00024012575896033793
sS'mutant1002'
p606
F0.0008882010817429239
sS'mutant445'
p607
F6.557619092648108e-05
sS'mutant442'
p608
F0.00010793248518790782
sS'mutant443'
p609
F0.0006618471235632389
sS'mutant1006'
p610
F0.0015932852542686778
sS'mutant441'
p611
F0.0005870630425799259
sS'mutant293'
p612
F0.00025181577590205497
sS'mutant292'
p613
F0.00019849008218161978
sS'mutant291'
p614
F0.0005728908987533238
sS'mutant290'
p615
F0.00047776939103579073
sS'mutant297'
p616
F0.00037440081657170396
sS'mutant296'
p617
F0.0004117127884541706
sS'mutant295'
p618
F7.50242868108825e-05
sS'mutant294'
p619
F0.0006901914112164431
sS'mutant299'
p620
F0.0003746410223992735
sS'mutant298'
p621
F0.00024949378623554953
sS'mutant503'
p622
F0.00010184727088947978
sS'mutant502'
p623
F0.0007970029358756931
sS'mutant501'
p624
F0.0022028475760309495
sS'mutant500'
p625
F0.00033548747250544046
sS'mutant507'
p626
F0.0008650612536870594
sS'mutant506'
p627
F0.0010605087287194651
sS'mutant505'
p628
F0.00023035738863917715
sS'mutant504'
p629
F0.0003629510054575565
sS'mutant509'
p630
F0.00029537309930132935
sS'mutant508'
p631
F0.0026920667781808877
sS'mutant356'
p632
F0.0002461309046495761
sS'mutant617'
p633
F0.00017094648062031395
sS'mutant616'
p634
F0.0007877149772096714
sS'mutant615'
p635
F0.00031691155517339696
sS'mutant614'
p636
F0.0001992907682735182
sS'mutant613'
p637
F0.001858152213468677
sS'mutant612'
p638
F0.0011019041996706137
sS'mutant611'
p639
F0.0006074805379233357
sS'mutant610'
p640
F0.000872907977387664
sS'mutant619'
p641
F0.0013188100619658974
sS'mutant618'
p642
F0.00031555038881716965
sS'mutant879'
p643
F0.00031779230987448524
sS'mutant1430'
p644
F0.0004712838336914135
sS'mutant877'
p645
F0.0004330911071078586
sS'mutant876'
p646
F0.0014264222727170459
sS'mutant875'
p647
F0.001776802506531797
sS'mutant874'
p648
F0.0005123590302058027
sS'mutant873'
p649
F0.0020205313529056777
sS'mutant872'
p650
F0.0009389645799692841
sS'mutant871'
p651
F0.0009416869126817387
sS'mutant870'
p652
F0.0008010063663351853
sS'mutant479'
p653
F0.0001107348865095523
sS'mutant478'
p654
F0.00043060898022297345
sS'mutant473'
p655
F0.00023756356346626298
sS'mutant472'
p656
F0.0006367856488868181
sS'mutant471'
p657
F6.357447569673501e-05
sS'mutant470'
p658
F0.00041475539560338463
sS'mutant477'
p659
F0.0013546807988829468
sS'mutant476'
p660
F0.0005182841072858511
sS'mutant475'
p661
F0.0009255130536253906
sS'mutant474'
p662
F0.0002818415043482459
sS'mutant279'
p663
F0.0005418242783876648
sS'mutant278'
p664
F0.00018055471372309504
sS'mutant1015'
p665
F0.002239038587384758
sS'mutant1014'
p666
F0.0003108263408749689
sS'mutant1013'
p667
F0.0001332341656918981
sS'mutant1012'
p668
F0.0003744808851808938
sS'mutant1011'
p669
F0.0008612980290551368
sS'mutant1010'
p670
F0.0022446433900280473
sS'mutant271'
p671
F0.0009714724353003601
sS'mutant270'
p672
F0.0007524047205569508
sS'mutant273'
p673
F0.000772662078681981
sS'mutant272'
p674
F0.0002560594121891166
sS'mutant275'
p675
F0.0015029678631025352
sS'mutant274'
p676
F0.0008526506192626337
sS'mutant277'
p677
F0.0002666284686021758
sS'mutant276'
p678
F0.0002648669591999993
sS'mutant121'
p679
F0.0007580095232002398
sS'mutant1432'
p680
F0.0004148354642125745
sS'mutant120'
p681
F0.00022082922414558588
sS'mutant123'
p682
F0.0006772202965276887
sS'mutant650'
p683
F0.0006391076385533236
sS'mutant125'
p684
F0.00018864164325126914
sS'mutant124'
p685
F0.00015861591480507818
sS'mutant127'
p686
F0.0011723645757576752
sS'mutant126'
p687
F0.0007717012553717029
sS'mutant1309'
p688
F0.0007433569677184987
sS'mutant1308'
p689
F0.00017430936220628733
sS'mutant128'
p690
F0.00035958812387158306
sS'mutant1303'
p691
F0.0006301399543240612
sS'mutant1302'
p692
F0.0006769800907001192
sS'mutant1301'
p693
F0.0005177236270215221
sS'mutant1300'
p694
F0.00033364589449407406
sS'mutant1307'
p695
F0.0003608692216186206
sS'mutant1306'
p696
F0.0008164596079088249
sS'mutant1305'
p697
F0.0005130796476885114
sS'mutant1304'
p698
F0.0002664683313837962
sS'mutant1169'
p699
F0.00014260219296710966
sS'mutant1168'
p700
F0.00022923642811051935
sS'mutant1167'
p701
F0.0015924044995675895
sS'mutant1166'
p702
F0.000721818511846431
sS'mutant1165'
p703
F0.0009660277698754509
sS'mutant1164'
p704
F0.0005211665772166855
sS'mutant1163'
p705
F0.00030818407677170415
sS'mutant1162'
p706
F0.00024605083604038627
sS'mutant1161'
p707
F0.0003397311087925021
sS'mutant1160'
p708
F0.0003949784491334935
sS'mutant349'
p709
F0.0003115469583576775
sS'mutant1438'
p710
F0.00039033446980048264
sS'mutant977'
p711
F0.00011105516094631167
sS'mutant417'
p712
F0.0022521698392918925
sS'mutant1492'
p713
F0.0004665597857492128
sS'mutant970'
p714
F0.00043621378286626245
sS'mutant284'
p715
F0.0001426822615762995
sS'mutant285'
p716
F0.00023299965274244195
sS'mutant286'
p717
F0.0005804974166263588
sS'mutant287'
p718
F0.000769139059877628
sS'mutant280'
p719
F0.00013051183297944344
sS'mutant281'
p720
F0.00021642545064014452
sS'mutant282'
p721
F0.00198906438949407
sS'mutant283'
p722
F0.00029265076658887467
sS'mutant341'
p723
F0.0002735143689925023
sS'mutant288'
p724
F0.0002188275089158398
sS'mutant289'
p725
F0.00020577632561789546
sS'mutant514'
p726
F0.000465438825220555
sS'mutant515'
p727
F0.00022034881249044681
sS'mutant516'
p728
F0.000950174185255862
sS'mutant517'
p729
F0.0006404688049095508
sS'mutant510'
p730
F0.00015124960275961265
sS'mutant511'
p731
F0.0014413951026355464
sS'mutant512'
p732
F0.0004744865780590072
sS'mutant513'
p733
F0.0003551042817569519
sS'mutant518'
p734
F0.00211092881268101
sS'mutant519'
p735
F0.0026632420788725445
sS'mutant886'
p736
F0.00029593357956565823
sS'mutant340'
p737
F0.000683145373607737
sS'mutant884'
p738
F0.0017887327293010834
sS'mutant885'
p739
F6.837859224812557e-05
sS'mutant882'
p740
F0.0015581351348343368
sS'mutant883'
p741
F0.00012618812808319193
sS'mutant880'
p742
F0.0007510435542007235
sS'mutant881'
p743
F0.0002830425334860936
sS'mutant608'
p744
F0.0002652673022459485
sS'mutant609'
p745
F0.0005797767991436502
sS'mutant726'
p746
F0.000285364523152599
sS'mutant600'
p747
F0.0007668170702111225
sS'mutant601'
p748
F9.344006692454631e-05
sS'mutant602'
p749
F0.00038993412675453345
sS'mutant603'
p750
F0.0003295623954253921
sS'mutant604'
p751
F0.000332685071183796
sS'mutant605'
p752
F0.0006356646883581604
sS'mutant606'
p753
F0.0008890818364440122
sS'mutant607'
p754
F0.0011747666340333706
sS'mutant236'
p755
F0.00201436606999806
sS'mutant985'
p756
F0.0004992277782986686
sS'mutant723'
p757
F0.0020175688143656534
sS'mutant722'
p758
F0.0005977922362113648
sS'mutant860'
p759
F0.00032219608337992657
sS'mutant861'
p760
F0.000304180646312212
sS'mutant862'
p761
F0.00018135539981499346
sS'mutant863'
p762
F0.0005430253075255125
sS'mutant864'
p763
F0.0010226362765726697
sS'mutant865'
p764
F0.00037888465868633514
sS'mutant866'
p765
F0.0021402339236444926
sS'mutant867'
p766
F0.00010929365154413514
sS'mutant868'
p767
F0.0001397197230362753
sS'mutant869'
p768
F0.0006688130925627552
sS'mutant720'
p769
F0.00024981406067230887
sS'mutant984'
p770
F0.0005499912765250288
sS'mutant468'
p771
F0.0004612752575426832
sS'mutant469'
p772
F0.00011249639591172884
sS'mutant464'
p773
F0.00048041165513905556
sS'mutant465'
p774
F0.00039201591059346934
sS'mutant466'
p775
F0.00010505001525707348
sS'mutant467'
p776
F0.0001810351253782341
sS'mutant460'
p777
F0.00040666846607521055
sS'mutant461'
p778
F0.0003145895655068915
sS'mutant462'
p779
F0.0008641804989859711
sS'mutant463'
p780
F0.0007183755616512677
sS'mutant268'
p781
F0.0002898483652672302
sS'mutant269'
p782
F0.0011339316433465509
sS'mutant262'
p783
F0.0011555501678278083
sS'mutant263'
p784
F0.00024124671948899573
sS'mutant260'
p785
F0.0006606460944253912
sS'mutant261'
p786
F0.0011008633077511458
sS'mutant266'
p787
F0.0005937087371426828
sS'mutant267'
p788
F0.001372936441778231
sS'mutant264'
p789
F0.0005664854100181363
sS'mutant265'
p790
F0.00084440355251608
sS'mutant1202'
p791
F0.0011220814891864542
sS'mutant1203'
p792
F0.00029249062937049497
sS'mutant1200'
p793
F0.0009926105481264786
sS'mutant1201'
p794
F0.0005612008818116067
sS'mutant1206'
p795
F0.00024316836610955195
sS'mutant1207'
p796
F0.00018111519398742395
sS'mutant1204'
p797
F0.0003791248645139047
sS'mutant1205'
p798
F0.0013162478664718224
sS'mutant1208'
p799
F0.00041779800275259865
sS'mutant1209'
p800
F0.0001707062747927444
sS'mutant982'
p801
F0.000501549767965174
sS'mutant1488'
p802
F0.0005230882238372416
sS'mutant1489'
p803
F0.0002242721743407491
sS'mutant1378'
p804
F0.001381103439915595
sS'mutant1379'
p805
F0.00065616225231076
sS'mutant1376'
p806
F0.0022705856194055562
sS'mutant1377'
p807
F0.00041947944354558535
sS'mutant1374'
p808
F0.0004961051025402647
sS'mutant1375'
p809
F0.00033396616893083345
sS'mutant1372'
p810
F0.0016427676547480004
sS'mutant1373'
p811
F0.0006592849280691639
sS'mutant1370'
p812
F0.0009699511317257532
sS'mutant1371'
p813
F0.00038072623669770155
sS'mutant1487'
p814
F0.00023788383790302234
sS'mutant1192'
p815
F0.000573771653454412
sS'mutant1193'
p816
F0.00027287382011898355
sS'mutant1190'
p817
F0.0007222188548923801
sS'mutant1191'
p818
F0.0003073833906798057
sS'mutant1196'
p819
F0.001522024192089718
sS'mutant1197'
p820
F0.0004365340573030218
sS'mutant1194'
p821
F0.00030634249876033775
sS'mutant1195'
p822
F0.000297054540094316
sS'mutant1198'
p823
F0.00017983409624038646
sS'mutant1199'
p824
F0.0001592564636785969
sS'mutant989'
p825
F0.0011665996358960066
sS'mutant1431'
p826
F0.0002583013332464322
sS'mutant1346'
p827
F0.001636362166012813
sS'mutant243'
p828
F0.000772662078681981
sS'mutant1433'
p829
F0.0013481952415385695
sS'mutant838'
p830
F0.0013056788100587631
sS'mutant1435'
p831
F0.00022555327208778657
sS'mutant988'
p832
F0.0018615150950546504
sS'mutant1434'
p833
F0.001522424535135667
sS'mutant1028'
p834
F0.0010480180256858497
sS'mutant1029'
p835
F0.00010464967221112427
sS'mutant1026'
p836
F0.0004186787574536869
sS'mutant429'
p837
F0.0002654274394643282
sS'mutant831'
p838
F0.0006580038303221264
sS'mutant830'
p839
F0.0018911404804548922
sS'mutant837'
p840
F0.0002628652439702532
sS'mutant836'
p841
F0.00030746345928899557
sS'mutant1349'
p842
F0.000357105996986698
sS'mutant834'
p843
F0.00020769797223845168
sS'mutant389'
p844
F0.0004724848628292611
sS'mutant388'
p845
F0.002122538761013537
sS'mutant385'
p846
F0.0006877893529407479
sS'mutant384'
p847
F0.0002315584177770248
sS'mutant387'
p848
F0.0001912038387453441
sS'mutant386'
p849
F0.0016339601077371177
sS'mutant381'
p850
F0.0005794565247068908
sS'mutant380'
p851
F0.001102224474107373
sS'mutant383'
p852
F0.001641006145345824
sS'mutant382'
p853
F0.00019360589702103938
sS'mutant679'
p854
F0.0009955730866665028
sS'mutant678'
p855
F0.00035534448758452143
sS'mutant727'
p856
F0.0024402510022788326
sS'mutant675'
p857
F0.000556476833869406
sS'mutant674'
p858
F0.0016803999010672264
sS'mutant677'
p859
F0.001397757710627082
sS'mutant676'
p860
F0.00043301103849866874
sS'mutant671'
p861
F0.000150048573621765
sS'mutant670'
p862
F0.0001355561553584035
sS'mutant673'
p863
F0.0006970773116067696
sS'mutant672'
p864
F0.0003024992055192253
sS'mutant815'
p865
F0.00038657124516856004
sS'mutant814'
p866
F0.00033412630614921315
sS'mutant817'
p867
F0.0004374948806132999
sS'mutant816'
p868
F0.001029522176962996
sS'mutant811'
p869
F0.0004436601635209178
sS'mutant810'
p870
F0.00029313117824401376
sS'mutant813'
p871
F0.001127766360438933
sS'mutant812'
p872
F0.00038601076490423115
sS'mutant819'
p873
F0.0005061937472981849
sS'mutant818'
p874
F0.0013815037829615442
sS'mutant491'
p875
F0.0008048496595762977
sS'mutant490'
p876
F0.000354543801492623
sS'mutant493'
p877
F0.0010578664646162003
sS'mutant725'
p878
F0.0005192449305961292
sS'mutant495'
p879
F0.001240102619132282
sS'mutant494'
p880
F0.0008838773768466724
sS'mutant497'
p881
F0.0002651071650275688
sS'mutant496'
p882
F0.0005861022192696478
sS'mutant499'
p883
F0.0002571803727177744
sS'mutant498'
p884
F0.00029032877692236923
sS'mutant701'
p885
F0.0007946809462091877
sS'mutant700'
p886
F0.00026534737085513835
sS'mutant703'
p887
F0.00047040307899032523
sS'mutant702'
p888
F0.0013182495817015685
sS'mutant705'
p889
F0.00040995127905199406
sS'mutant704'
p890
F0.001952312897875932
sS'mutant259'
p891
F0.00038344856941015617
sS'mutant258'
p892
F0.00040242482978814886
sS'mutant257'
p893
F0.0015879206574529582
sS'mutant708'
p894
F0.00010008576148730324
sS'mutant255'
p895
F0.0008227850280348224
sS'mutant254'
p896
F0.0008259877724024161
sS'mutant253'
p897
F0.00032852150350592415
sS'mutant252'
p898
F0.00011281667034848821
sS'mutant251'
p899
F0.0002496539234539292
sS'mutant250'
p900
F0.00020385467899733923
sS'mutant1211'
p901
F0.00021594503898500548
sS'mutant1210'
p902
F0.001096219328418135
sS'mutant1213'
p903
F0.0010723588828795618
sS'mutant1212'
p904
F0.00019560761225078546
sS'mutant1215'
p905
F0.001087972261671581
sS'mutant1214'
p906
F0.00046007422840483556
sS'mutant1217'
p907
F8.551327461475188e-05
sS'mutant1216'
p908
F0.0001641406488391773
sS'mutant1219'
p909
F0.00024861303153446125
sS'mutant1218'
p910
F0.0002458106302128168
sS'mutant923'
p911
F0.001150665982667228
sS'mutant922'
p912
F0.0005709692521327675
sS'mutant925'
p913
F0.00013939944859951594
sS'mutant924'
p914
F0.0014531651881864532
sS'mutant927'
p915
F0.0007592105523380874
sS'mutant926'
p916
F0.0017255585966502976
sS'mutant969'
p917
F0.00048585632056396486
sS'mutant968'
p918
F0.00023620239711003564
sS'mutant1369'
p919
F0.00047552746997847514
sS'mutant1368'
p920
F0.00021370311792768987
sS'mutant1365'
p921
F0.0012015896181119677
sS'mutant1364'
p922
F0.0003727994443879071
sS'mutant1367'
p923
F0.0002850442487158396
sS'mutant1366'
p924
F0.00043829556670519834
sS'mutant1361'
p925
F0.0003726393071695274
sS'mutant1360'
p926
F0.000745678957385004
sS'mutant1363'
p927
F0.0006345437278295025
sS'mutant1362'
p928
F0.00029713460870350584
sS'mutant721'
p929
F0.00041763786553421895
sS'mutant1181'
p930
F0.0009502542538650519
sS'mutant1180'
p931
F0.00024428932663820977
sS'mutant1183'
p932
F0.0010059820058611823
sS'mutant1182'
p933
F0.0002592621565567103
sS'mutant1185'
p934
F0.000227875261754292
sS'mutant1184'
p935
F0.0004950642106207968
sS'mutant1187'
p936
F0.0009757961401966117
sS'mutant1186'
p937
F0.0020550409234665
sS'mutant1189'
p938
F0.00013075203880701295
sS'mutant1188'
p939
F0.0019006686449484834
sS'mutant1486'
p940
F0.0005760936431209175
sS'mutant910'
p941
F0.0003723991013419579
sS'mutant911'
p942
F0.0002430882975003621
sS'mutant798'
p943
F0.0003142692910701322
sS'mutant799'
p944
F0.00015541317043748446
sS'mutant957'
p945
F0.00046575909965731435
sS'mutant796'
p946
F0.0005598397154553794
sS'mutant797'
p947
F0.0008050097967946774
sS'mutant98'
p948
F0.0004851357030812563
sS'mutant99'
p949
F0.00042628527532672197
sS'mutant92'
p950
F0.0014626132840708547
sS'mutant93'
p951
F0.0007476006040055603
sS'mutant90'
p952
F0.00036559326956082125
sS'mutant91'
p953
F0.00040106366343192155
sS'mutant96'
p954
F0.0006737773463325255
sS'mutant97'
p955
F0.00036983690584788294
sS'mutant94'
p956
F0.0006323818753813768
sS'mutant95'
p957
F0.0005288531636989104
sS'mutant398'
p958
F0.0022567337500157135
sS'mutant399'
p959
F0.0011826934263431648
sS'mutant396'
p960
F0.0008593763824345806
sS'mutant397'
p961
F0.000655201429000482
sS'mutant394'
p962
F0.00033604795276976935
sS'mutant395'
p963
F0.0004472632509344607
sS'mutant392'
p964
F0.0021443974913223644
sS'mutant393'
p965
F0.0003715984152500595
sS'mutant390'
p966
F0.0006656904168043513
sS'mutant391'
p967
F0.0003852100788123327
sS'mutant668'
p968
F0.0004549498374166856
sS'mutant669'
p969
F7.206174827085833e-05
sS'mutant666'
p970
F0.00013691732171463084
sS'mutant667'
p971
F0.0008239059885634803
sS'mutant664'
p972
F0.002076979722384517
sS'mutant665'
p973
F0.000247732276833373
sS'mutant662'
p974
F0.00011361735644038664
sS'mutant663'
p975
F0.00012722902000265987
sS'mutant660'
p976
F0.002342407161848845
sS'mutant661'
p977
F0.001042333154433371
sS'mutant806'
p978
F0.0015498880680877832
sS'mutant807'
p979
F0.00023964534730519887
sS'mutant804'
p980
F0.0004472632509344607
sS'mutant805'
p981
F0.0010191132577683166
sS'mutant802'
p982
F0.002026056086939777
sS'mutant803'
p983
F0.00012963107827835516
sS'mutant800'
p984
F0.00045879313065779804
sS'mutant801'
p985
F0.0018371742378609382
sS'mutant918'
p986
F0.00013387471456541682
sS'mutant808'
p987
F0.00029016863970398953
sS'mutant809'
p988
F0.0003527022234812566
sS'mutant492'
p989
F6.117241742103974e-05
sS'mutant482'
p990
F0.0006132454777850044
sS'mutant483'
p991
F0.00029673426565755666
sS'mutant480'
p992
F0.000841841357022005
sS'mutant481'
p993
F0.0002768772505784757
sS'mutant486'
p994
F0.0005670458902824652
sS'mutant487'
p995
F0.0003366885016432881
sS'mutant484'
p996
F0.00018351725226311923
sS'mutant485'
p997
F0.0014958417568846393
sS'mutant919'
p998
F0.0004491048289458271
sS'mutant488'
p999
F0.0001438032221049573
sS'mutant489'
p1000
F0.001050420083961545
sS'mutant712'
p1001
F0.0004899398196326468
sS'mutant713'
p1002
F0.0003267599941037476
sS'mutant242'
p1003
F0.00037944513895066403
sS'mutant711'
p1004
F0.00023187869221378415
sS'mutant244'
p1005
F0.0004439804379576772
sS'mutant245'
p1006
F0.0008879608759153544
sS'mutant246'
p1007
F0.0003115469583576775
sS'mutant715'
p1008
F0.0006662508970686803
sS'mutant248'
p1009
F0.0003090648314727924
sS'mutant249'
p1010
F0.0007614524733954031
sS'mutant718'
p1011
F0.00043861584114195774
sS'mutant719'
p1012
F0.0003874519998696483
sS'mutant1224'
p1013
F0.00010272802559056805
sS'mutant1225'
p1014
F0.0004521474360950411
sS'mutant1226'
p1015
F0.0007090075343760562
sS'mutant1227'
p1016
F0.0005850613273501798
sS'mutant1220'
p1017
F0.0002945724132094309
sS'mutant1221'
p1018
F0.0005575977943980638
sS'mutant1222'
p1019
F0.0007399140175233354
sS'mutant1223'
p1020
F0.0018005828834611803
sS'mutant932'
p1021
F0.0021901166671697645
sS'mutant933'
p1022
F0.00024284809167279258
sS'mutant930'
p1023
F0.00012867025496807703
sS'mutant931'
p1024
F0.0005655245867078583
sS'mutant1228'
p1025
F0.0012738915722103957
sS'mutant1229'
p1026
F0.00051884458755018
sS'mutant934'
p1027
F0.0004590333364853676
sS'mutant935'
p1028
F0.00021938798918016872
sS'mutant1422'
p1029
F0.0007813094884744841
sS'mutant1423'
p1030
F0.000164300786057557
sS'mutant1420'
p1031
F0.00015485269017315558
sS'mutant1421'
p1032
F0.0004634371099908089
sS'mutant1426'
p1033
F0.0005177236270215221
sS'mutant1427'
p1034
F0.00044806393702635913
sS'mutant1424'
p1035
F0.00011890188464691625
sS'mutant1425'
p1036
F0.0007258219423059232
sS'mutant1358'
p1037
F0.0010852499289591266
sS'mutant1359'
p1038
F0.00019897049383675884
sS'mutant1428'
p1039
F0.0008737086634795624
sS'mutant1429'
p1040
F0.0002531769422582823
sS'mutant707'
p1041
F0.0024143888415105136
sS'mutant706'
p1042
F0.0007265425597886317
sS'mutant709'
p1043
F0.000562642116777024
sS'mutant256'
p1044
F0.0006680924750800466
sS'mutant319'
p1045
F0.0005074748450452223
sS'mutant929'
p1046
F0.0010603485915010855
sS'mutant928'
p1047
F0.0028060044090580335
sS'mutant921'
p1048
F0.0011883782975956438
sS'mutant920'
p1049
F0.0003832884321917765
sS'mutant89'
p1050
F0.0003528623606996363
sS'mutant88'
p1051
F0.0024817265418391713
sS'mutant85'
p1052
F0.0017466166408672264
sS'mutant84'
p1053
F0.00040426640779951526
sS'mutant87'
p1054
F0.0004160364933504221
sS'mutant86'
p1055
F0.000439496595843046
sS'mutant81'
p1056
F0.0003404517262752107
sS'mutant80'
p1057
F0.0012022301669854865
sS'mutant83'
p1058
F0.0003121875072311963
sS'mutant82'
p1059
F0.00035086064546989025
sS'mutant0'
p1060
F0.00048569618334558517
sS'mutant1'
p1061
F0.00026758929191245394
sS'mutant2'
p1062
F0.00016774373625272023
sS'mutant653'
p1063
F0.0003430939903784755
sS'mutant652'
p1064
F0.0005539947069845209
sS'mutant651'
p1065
F0.000271112310716807
sS'mutant401'
p1066
F0.0008573746672048345
sS'mutant657'
p1067
F0.0005776950153047143
sS'mutant656'
p1068
F0.00015533310182829464
sS'mutant655'
p1069
F0.0015279492691697661
sS'mutant654'
p1070
F0.0012465881764766593
sS'mutant129'
p1071
F9.872459513107592e-05
sS'mutant406'
p1072
F0.00020345433595139002
sS'mutant659'
p1073
F0.0006202114467845207
sS'mutant658'
p1074
F0.000555435941949938
sS'mutant407'
p1075
F0.00039369735138645605
sS'mutant404'
p1076
F0.0007709005692798044
sS'mutant405'
p1077
F0.0007291047552827067
sS'mutant235'
p1078
F0.0010055015942060433
sS'mutant234'
p1079
F0.00019168425040048316
sS'mutant237'
p1080
F0.00024829275709770186
sS'mutant724'
p1081
F0.0004105918279255128
sS'mutant231'
p1082
F0.00015933653228778676
sS'mutant230'
p1083
F0.0001979296019172909
sS'mutant233'
p1084
F0.0017660733129003581
sS'mutant232'
p1085
F0.000596671275682707
sS'mutant239'
p1086
F0.0008564939125037462
sS'mutant238'
p1087
F0.00012154414875018105
sS'mutant729'
p1088
F0.0006483155286101554
sS'mutant728'
p1089
F0.0004365340573030218
sS'mutant909'
p1090
F0.0003944179688691646
sS'mutant908'
p1091
F0.00024605083604038627
sS'mutant907'
p1092
F0.0004670401974043518
sS'mutant906'
p1093
F0.00023628246571922548
sS'mutant905'
p1094
F0.0005112380696771449
sS'mutant904'
p1095
F0.0009179866043615453
sS'mutant903'
p1096
F0.0007277435889264793
sS'mutant902'
p1097
F0.0005074748450452223
sS'mutant901'
p1098
F0.0002639061358897212
sS'mutant900'
p1099
F0.00015653413096614226
sS'mutant1347'
p1100
F0.0014602112257951594
sS'mutant348'
p1101
F0.000491861466253203
sS'mutant1345'
p1102
F0.00012851011774969736
sS'mutant1344'
p1103
F0.0015706258378679523
sS'mutant1343'
p1104
F0.0005808977596723081
sS'mutant1342'
p1105
F0.0001983299449632401
sS'mutant1437'
p1106
F0.0004590333364853676
sS'mutant1436'
p1107
F0.0007847524386696473
sS'mutant1439'
p1108
F7.150126800652944e-05
sS'mutant832'
p1109
F0.00021810689143313123
sS'mutant343'
p1110
F0.0011362536330130563
sS'mutant342'
p1111
F0.00038769220569721786
sS'mutant345'
p1112
F0.0002852043859342193
sS'mutant344'
p1113
F0.0018359732087230905
sS'mutant347'
p1114
F0.0002000113857562268
sS'mutant346'
p1115
F0.0006496766949663828
sS'mutant1239'
p1116
F0.0012797365806812542
sS'mutant1238'
p1117
F0.001785930327979439
sS'mutant1233'
p1118
F0.0003065827045879073
sS'mutant1232'
p1119
F0.0007202171396626341
sS'mutant1231'
p1120
F0.00010320843724570711
sS'mutant1230'
p1121
F0.0005152415001366371
sS'mutant1237'
p1122
F0.000272633614291414
sS'mutant1236'
p1123
F0.0007471201923504213
sS'mutant1235'
p1124
F0.0007154930917204334
sS'mutant1234'
p1125
F0.00011161564121064057
sS'mutant954'
p1126
F0.000460874914496734
sS'mutant878'
p1127
F0.0004655188938297448
sS'mutant955'
p1128
F0.0014735826835298631
sS'mutant204'
p1129
F0.00038504994159395303
sS'mutant205'
p1130
F0.0011985470109627538
sS'mutant206'
p1131
F0.0014211377445105162
sS'mutant207'
p1132
F0.0002992163925424418
sS'mutant200'
p1133
F0.0005369400932270844
sS'mutant201'
p1134
F0.00015757502288561023
sS'mutant202'
p1135
F0.0007552871904877852
sS'mutant751'
p1136
F0.0002900085024856099
sS'mutant950'
p1137
F0.0011665996358960066
sS'mutant951'
p1138
F0.00012378606980749664
sS'mutant70'
p1139
F0.00026102366595888687
sS'mutant71'
p1140
F0.00026999135018814923
sS'mutant72'
p1141
F0.0020654498426611796
sS'mutant73'
p1142
F0.0004219615704304705
sS'mutant74'
p1143
F0.00014572486872551353
sS'mutant75'
p1144
F0.000720297208271824
sS'mutant76'
p1145
F0.0003765626690198297
sS'mutant77'
p1146
F0.00013651697866868162
sS'mutant78'
p1147
F0.0016799995580212774
sS'mutant79'
p1148
F0.00012402627563506618
sS'mutant952'
p1149
F0.0010155101703547735
sS'mutant938'
p1150
F0.0007868342225085831
sS'mutant976'
p1151
F0.0005383813281925016
sS'mutant1063'
p1152
F0.0009789188159550156
sS'mutant974'
p1153
F0.0003089847628636026
sS'mutant975'
p1154
F0.00020233337542273222
sS'mutant972'
p1155
F0.00027711745640604524
sS'mutant973'
p1156
F0.0015053699213782305
sS'mutant644'
p1157
F0.002084666308866742
sS'mutant133'
p1158
F0.0005464682577206757
sS'mutant130'
p1159
F0.00030498133240411043
sS'mutant131'
p1160
F0.001159233323850541
sS'mutant136'
p1161
F0.0016371628521047114
sS'mutant137'
p1162
F0.0010032596731487278
sS'mutant134'
p1163
F0.00040274510422490825
sS'mutant135'
p1164
F9.552185076348221e-05
sS'mutant138'
p1165
F0.000718215424432888
sS'mutant139'
p1166
F0.0011100711978079777
sS'mutant648'
p1167
F0.00015557330765586416
sS'mutant637'
p1168
F0.0003539833212282941
sS'mutant956'
p1169
F0.0013808632340880254
sS'mutant738'
p1170
F0.000245170081339298
sS'mutant739'
p1171
F0.0006258162494278097
sS'mutant730'
p1172
F0.0012107975081687996
sS'mutant731'
p1173
F0.0006877092843315581
sS'mutant732'
p1174
F0.0006203715840029004
sS'mutant733'
p1175
F0.0007079666424565882
sS'mutant734'
p1176
F0.0003812066483528406
sS'mutant735'
p1177
F0.0006573632814486077
sS'mutant736'
p1178
F0.000282321916003385
sS'mutant737'
p1179
F0.0002703916932340984
sS'mutant226'
p1180
F0.0003012981763813777
sS'mutant227'
p1181
F0.0012272115730527174
sS'mutant224'
p1182
F0.0001026479569813782
sS'mutant225'
p1183
F0.00015164994580556186
sS'mutant222'
p1184
F0.00035870736917049484
sS'mutant223'
p1185
F0.0010281610106067688
sS'mutant220'
p1186
F0.0005282126148253916
sS'mutant221'
p1187
F0.0018887384221791968
sS'mutant228'
p1188
F0.0002475721396149933
sS'mutant229'
p1189
F0.0006365454430592487
sS'mutant1088'
p1190
F0.0011820528774696463
sS'mutant1089'
p1191
F0.001166839841723576
sS'mutant912'
p1192
F0.00037287951299709696
sS'mutant913'
p1193
F0.00109870145530302
sS'mutant914'
p1194
F0.0004617556691978222
sS'mutant915'
p1195
F0.00019088356430858473
sS'mutant916'
p1196
F0.00026046318569455793
sS'mutant917'
p1197
F6.293392682321628e-05
sS'mutant1080'
p1198
F0.0011914209047448577
sS'mutant1081'
p1199
F0.001716831118248605
sS'mutant1082'
p1200
F7.614524733954031e-05
sS'mutant1083'
p1201
F0.00023508143658137784
sS'mutant1084'
p1202
F0.0002495738548447394
sS'mutant1085'
p1203
F0.0002058563942270853
sS'mutant1086'
p1204
F0.00022435224294993893
sS'mutant1087'
p1205
F0.0003506204396423207
sS'mutant1404'
p1206
F6.909920973083415e-05
sS'mutant1405'
p1207
F0.0005764939861668667
sS'mutant1406'
p1208
F0.0010297623827905656
sS'mutant1407'
p1209
F0.0005271717229059236
sS'mutant1400'
p1210
F0.0013559618966299844
sS'mutant1401'
p1211
F0.00036951663141112354
sS'mutant1402'
p1212
F0.00026438654754486023
sS'mutant1403'
p1213
F0.0001366771158870613
sS'mutant352'
p1214
F0.0004302887057862141
sS'mutant353'
p1215
F0.001289985362657554
sS'mutant350'
p1216
F0.0017551839820505394
sS'mutant351'
p1217
F0.0003276407488048359
sS'mutant1408'
p1218
F0.0002054560511811361
sS'mutant1409'
p1219
F0.0008235857141267209
sS'mutant354'
p1220
F0.0019606400332316757
sS'mutant823'
p1221
F0.0003964997527081005
sS'mutant1398'
p1222
F0.002417351380050538
sS'mutant1399'
p1223
F0.0006151671244055606
sS'mutant1394'
p1224
F0.0005673661647192246
sS'mutant1395'
p1225
F0.00019408630867617845
sS'mutant1396'
p1226
F0.0004487845545090677
sS'mutant1397'
p1227
F0.0005020301796203131
sS'mutant1390'
p1228
F0.000562562048167834
sS'mutant1391'
p1229
F0.0002710322421076172
sS'mutant1392'
p1230
F0.0018689614757093059
sS'mutant1393'
p1231
F0.000724861118995645
sS'mutant949'
p1232
F0.0009403257463255114
sS'mutant1248'
p1233
F0.0008793134661228513
sS'mutant1249'
p1234
F0.0010032596731487278
sS'mutant1246'
p1235
F0.0007577693173726703
sS'mutant1247'
p1236
F0.002639461701943161
sS'mutant1244'
p1237
F0.0009380037566590059
sS'mutant1245'
p1238
F0.00018567910471124497
sS'mutant1242'
p1239
F0.000465438825220555
sS'mutant1243'
p1240
F0.0008203829697591272
sS'mutant1240'
p1241
F0.00014412349654171667
sS'mutant1241'
p1242
F0.0012887042649105166
sS'mutant821'
p1243
F0.0001270688827842802
sS'mutant1465'
p1244
F0.0002738346434292617
sS'mutant1017'
p1245
F0.0007624132967056812
sS'mutant371'
p1246
F0.0003165112121274478
sS'mutant1019'
p1247
F7.550469846602157e-05
sS'mutant1018'
p1248
F0.00030289954856517454
sS'mutant1341'
p1249
F0.0013063994275414718
sS'mutant1340'
p1250
F0.0002355618482365169
sS'mutant843'
p1251
F0.000807732129507132
sS'mutant63'
p1252
F0.00028768651281910445
sS'mutant62'
p1253
F0.000150048573621765
sS'mutant61'
p1254
F0.001610980416899633
sS'mutant60'
p1255
F9.632253685538064e-05
sS'mutant67'
p1256
F7.942806031632385e-05
sS'mutant66'
p1257
F0.000982281697540989
sS'mutant65'
p1258
F0.000307223253461426
sS'mutant64'
p1259
F0.00046647971714002293
sS'mutant69'
p1260
F0.00012090359987666232
sS'mutant68'
p1261
F0.00015597365070181337
sS'mutant839'
p1262
F0.00037207882690519853
sS'mutant1016'
p1263
F0.0009887672548853663
sS'mutant945'
p1264
F0.0003777636981576774
sS'mutant107'
p1265
F0.0003364482958157186
sS'mutant106'
p1266
F0.0005808176910631182
sS'mutant105'
p1267
F0.0003946581746967341
sS'mutant104'
p1268
F0.00080372869904764
sS'mutant103'
p1269
F0.0013847865959383276
sS'mutant102'
p1270
F0.00034957954772285273
sS'mutant101'
p1271
F0.0002083385211119704
sS'mutant100'
p1272
F0.0002080983152844009
sS'mutant109'
p1273
F0.00023147834916783494
sS'mutant108'
p1274
F0.0006342234533927432
sS'mutant847'
p1275
F0.0004649584135654159
sS'mutant944'
p1276
F0.0009648267407376032
sS'mutant699'
p1277
F0.0011079894139690418
sS'mutant698'
p1278
F0.0016502941040118456
sS'mutant697'
p1279
F0.0008090932958633594
sS'mutant696'
p1280
F0.0005937888057518727
sS'mutant695'
p1281
F0.0006789818059298652
sS'mutant694'
p1282
F0.00038905337205344517
sS'mutant693'
p1283
F0.00021530449011148672
sS'mutant692'
p1284
F0.0003217957403339774
sS'mutant691'
p1285
F0.00033772939356275605
sS'mutant690'
p1286
F0.00029825556923216367
sS'mutant219'
p1287
F0.00022419210573155926
sS'mutant218'
p1288
F0.00027711745640604524
sS'mutant749'
p1289
F0.0013066396333690413
sS'mutant748'
p1290
F0.0014214580189472756
sS'mutant745'
p1291
F0.00017230764697654126
sS'mutant744'
p1292
F0.0006418299712657782
sS'mutant211'
p1293
F7.766655091414732e-05
sS'mutant210'
p1294
F0.0004305289116137836
sS'mutant217'
p1295
F0.0005013095621376045
sS'mutant216'
p1296
F0.0005999540886594905
sS'mutant215'
p1297
F0.0005114782755047145
sS'mutant214'
p1298
F0.0007648153549813764
sS'mutant589'
p1299
F0.00018247636034365126
sS'mutant588'
p1300
F0.0013859876250761753
sS'mutant583'
p1301
F0.0006242148772440129
sS'mutant582'
p1302
F0.0018939428817765366
sS'mutant581'
p1303
F0.00032131532867883835
sS'mutant580'
p1304
F0.0012226476623288965
sS'mutant587'
p1305
F0.0007383126453395385
sS'mutant586'
p1306
F0.0008371973776889941
sS'mutant585'
p1307
F0.0006741776893784746
sS'mutant584'
p1308
F0.00016886469678137803
sS'mutant965'
p1309
F0.000181595605642563
sS'mutant132'
p1310
F0.0007116497984793209
sS'mutant967'
p1311
F0.0012260105439148698
sS'mutant966'
p1312
F0.00017270799002249047
sS'mutant961'
p1313
F0.0006258162494278097
sS'mutant960'
p1314
F0.00035430359566505345
sS'mutant1099'
p1315
F0.0002951328934737598
sS'mutant1098'
p1316
F0.0009588215950483651
sS'mutant1097'
p1317
F0.0009472116467158379
sS'mutant1096'
p1318
F0.0002488532373620308
sS'mutant1095'
p1319
F0.0010807660868444953
sS'mutant1094'
p1320
F0.0009525762435315573
sS'mutant1093'
p1321
F9.808404625755717e-05
sS'mutant1092'
p1322
F0.0020200509412505387
sS'mutant1091'
p1323
F0.00018880178046964884
sS'mutant1090'
p1324
F0.0002581411960280525
sS'mutant647'
p1325
F0.0001317929307264809
sS'mutant833'
p1326
F0.0005158820490101558
sS'mutant641'
p1327
F0.0001269087455659005
sS'mutant1419'
p1328
F0.0010702770990406259
sS'mutant1418'
p1329
F0.0006186901432099137
sS'mutant642'
p1330
F0.0003663939556527197
sS'mutant1413'
p1331
F0.0003694365628019337
sS'mutant1412'
p1332
F0.0017827275836118453
sS'mutant1411'
p1333
F0.00039297673390374747
sS'mutant643'
p1334
F8.839574454558622e-05
sS'mutant1417'
p1335
F0.0005194851364236987
sS'mutant1416'
p1336
F0.0007911579274048347
sS'mutant1415'
p1337
F0.0015410805210769004
sS'mutant1414'
p1338
F0.0017851296418875406
sS'mutant369'
p1339
F0.0013196107480577958
sS'mutant368'
p1340
F6.581639675405061e-05
sS'mutant367'
p1341
F0.00042564472645320324
sS'mutant366'
p1342
F0.0005166827351020543
sS'mutant365'
p1343
F0.0006345437278295025
sS'mutant364'
p1344
F0.0009830823836328873
sS'mutant363'
p1345
F0.00037720321789334844
sS'mutant362'
p1346
F0.0008060506887141454
sS'mutant361'
p1347
F0.0005960307268091882
sS'mutant360'
p1348
F0.0010515410444902028
sS'mutant649'
p1349
F0.0007181353558236983
sS'mutant1383'
p1350
F0.000571769938224666
sS'mutant1382'
p1351
F0.00043229042101596016
sS'mutant1381'
p1352
F0.0005237287727107604
sS'mutant1380'
p1353
F0.00024020582756952778
sS'mutant1387'
p1354
F0.00010881323988899608
sS'mutant1386'
p1355
F0.00011201598425658978
sS'mutant1385'
p1356
F0.0004993078469078585
sS'mutant1384'
p1357
F0.00017102654922950377
sS'mutant1389'
p1358
F0.0006331825614732752
sS'mutant1388'
p1359
F0.00019096363291777458
sS'mutant1259'
p1360
F0.0009441690395666239
sS'mutant1258'
p1361
F0.0008745093495714608
sS'mutant1255'
p1362
F0.00013811835085247848
sS'mutant1254'
p1363
F0.00015012864223095486
sS'mutant1257'
p1364
F0.0002889676105661419
sS'mutant1256'
p1365
F0.0004310093232689227
sS'mutant1251'
p1366
F0.0014305057717857277
sS'mutant1250'
p1367
F0.00014508431985199477
sS'mutant1253'
p1368
F0.00025750064715453376
sS'mutant1252'
p1369
F0.00028512431732502947
sS'mutant859'
p1370
F0.0003359678841605795
sS'mutant122'
p1371
F0.0003797654133874234
sS'mutant835'
p1372
F0.00033228472813784675
sS'mutant983'
p1373
F0.0009370429333487279
sS'mutant1348'
p1374
F0.0009002914417305902
sS'mutant56'
p1375
F0.0009311979248778693
sS'mutant57'
p1376
F0.0013401083120103954
sS'mutant54'
p1377
F0.0001488475444839174
sS'mutant55'
p1378
F0.0008854787490304692
sS'mutant52'
p1379
F0.0010187929833315572
sS'mutant53'
p1380
F0.0003014583135997574
sS'mutant50'
p1381
F0.0011611549704710973
sS'mutant51'
p1382
F0.0017592674811192214
sS'mutant58'
p1383
F0.00020737769780169231
sS'mutant59'
p1384
F0.0007807490082101551
sS'mutant850'
p1385
F0.000548309835732042
sS'mutant118'
p1386
F0.00023315978996082162
sS'mutant119'
p1387
F0.0009119013900631172
sS'mutant110'
p1388
F0.00036967676862950324
sS'mutant111'
p1389
F0.0006896309309521142
sS'mutant112'
p1390
F0.0002905689827499388
sS'mutant113'
p1391
F0.0003094651745187416
sS'mutant114'
p1392
F0.0025898992328546484
sS'mutant115'
p1393
F0.0006456732645068907
sS'mutant116'
p1394
F0.00024484980690253866
sS'mutant117'
p1395
F0.0007220587176740004
sS'mutant680'
p1396
F0.0008588959707794415
sS'mutant681'
p1397
F0.0006720959055395387
sS'mutant682'
p1398
F0.0005219672633085838
sS'mutant683'
p1399
F0.0003664740242619095
sS'mutant684'
p1400
F0.00016750353042515071
sS'mutant685'
p1401
F0.0005724104870981847
sS'mutant686'
p1402
F0.00040362585892599653
sS'mutant687'
p1403
F0.0019768939608972138
sS'mutant688'
p1404
F0.00036022867274510185
sS'mutant689'
p1405
F0.001503608411976054
sS'mutant636'
p1406
F0.0001233056581523576
sS'mutant187'
p1407
F0.0003347668550227319
sS'mutant186'
p1408
F0.001582956403683188
sS'mutant184'
p1409
F0.0001797540276311966
sS'mutant208'
p1410
F0.00015685440540290165
sS'mutant209'
p1411
F0.0004210808157293822
sS'mutant758'
p1412
F0.0001503688480585244
sS'mutant759'
p1413
F0.0020613663435924976
sS'mutant756'
p1414
F0.00026983121296976953
sS'mutant757'
p1415
F0.00017054613757436473
sS'mutant754'
p1416
F6.133255463941942e-05
sS'mutant755'
p1417
F0.0015446035398812535
sS'mutant752'
p1418
F0.0009276749060735163
sS'mutant753'
p1419
F0.00022771512453591234
sS'mutant750'
p1420
F0.0003622303879748479
sS'mutant203'
p1421
F0.0001977694646989112
sS'mutant598'
p1422
F0.0003081040081625143
sS'mutant599'
p1423
F0.000726382422570252
sS'mutant594'
p1424
F0.0002746353295211601
sS'mutant595'
p1425
F0.00045366873966964813
sS'mutant596'
p1426
F0.00014348294766819794
sS'mutant597'
p1427
F0.0009494535677731534
sS'mutant590'
p1428
F0.0003840891182836749
sS'mutant591'
p1429
F0.00041611656195961194
sS'mutant592'
p1430
F0.00021402339236444926
sS'mutant593'
p1431
F0.0014556473150713384
sS'mutant1062'
p1432
F0.00013547608674921368
sS'mutant1321'
p1433
F0.0006134056150033841
sS'mutant1060'
p1434
F0.0009777978554263577
sS'mutant1061'
p1435
F0.00030802393955332445
sS'mutant1066'
p1436
F0.0024854897664710936
sS'mutant1067'
p1437
F0.0008050898654038673
sS'mutant1064'
p1438
F0.00020665708031898373
sS'mutant1320'
p1439
F0.00031811258431124463
sS'mutant1068'
p1440
F0.0019483895360256297
sS'mutant1069'
p1441
F0.0008635399501124523
sS'mutant1491'
p1442
F0.00016798394208028975
sS'mutant978'
p1443
F0.00035870736917049484
sS'mutant979'
p1444
F0.0002630253811886329
sS'mutant1490'
p1445
F8.631396070665031e-05
sS'mutant1497'
p1446
F0.00035702592837750813
sS'mutant1496'
p1447
F0.00043197014657920076
sS'mutant1495'
p1448
F0.00040018290873083327
sS'mutant1468'
p1449
F0.0008733083204336132
sS'mutant1469'
p1450
F0.0009894078037588848
sS'mutant1466'
p1451
F0.00019056328987182537
sS'mutant1467'
p1452
F0.0014540459428875414
sS'mutant1464'
p1453
F0.0002577408529821033
sS'mutant1326'
p1454
F0.0006990790268365157
sS'mutant1462'
p1455
F0.00021018009912333681
sS'mutant1463'
p1456
F0.0003685558081008455
sS'mutant1460'
p1457
F0.0005379809851465524
sS'mutant1461'
p1458
F0.0001951272005956464
sS'mutant370'
p1459
F0.00013547608674921368
sS'mutant1329'
p1460
F0.00030706311624304633
sS'mutant372'
p1461
F0.000147005966472551
sS'mutant373'
p1462
F0.00045294812218693955
sS'mutant374'
p1463
F0.0002804803379920186
sS'mutant375'
p1464
F0.0005867427681431665
sS'mutant376'
p1465
F0.00020225330681354238
sS'mutant377'
p1466
F0.001718752764869161
sS'mutant378'
p1467
F0.00011385756226795617
sS'mutant379'
p1468
F0.00025557900053397757
sS'mutant1499'
p1469
F0.0001189819532561061
sS'mutant852'
p1470
F0.002094194473360333
sS'mutant1260'
p1471
F0.0008131767949320414
sS'mutant1261'
p1472
F0.0001588561206326477
sS'mutant1262'
p1473
F0.0003559049678488503
sS'mutant1263'
p1474
F0.0001237060011983068
sS'mutant1264'
p1475
F0.00017454956803385685
sS'mutant1265'
p1476
F0.0025556298681213958
sS'mutant1266'
p1477
F0.0014031223074428016
sS'mutant1267'
p1478
F0.002490454020240864
sS'mutant1268'
p1479
F0.0003430939903784755
sS'mutant1269'
p1480
F0.00020009145436541663
sS'mutant1118'
p1481
F0.00014804685839201896
sS'mutant1119'
p1482
F0.0007042834864338554
sS'mutant1112'
p1483
F0.0005692878113397809
sS'mutant1113'
p1484
F0.0003058620871051987
sS'mutant1110'
p1485
F0.00023964534730519887
sS'mutant1111'
p1486
F0.0003397311087925021
sS'mutant1116'
p1487
F5.500713451342186e-05
sS'mutant1117'
p1488
F0.0002747954667395398
sS'mutant1114'
p1489
F0.00011369742504957649
sS'mutant1115'
p1490
F0.0005883441403269634
sS'mutant1288'
p1491
F0.0002534972166950417
sS'mutant1289'
p1492
F0.0005922675021772656
sS'mutant1282'
p1493
F0.00025013433510906826
sS'mutant1283'
p1494
F0.00023211889804135367
sS'mutant1280'
p1495
F0.0005535943639385717
sS'mutant1281'
p1496
F0.0015959275183719426
sS'mutant1286'
p1497
F0.0003833685008009663
sS'mutant1287'
p1498
F0.000762493365314871
sS'mutant1284'
p1499
F0.0005479094926860928
sS'mutant1285'
p1500
F0.00021042030495090633
s.