(dp0
S'mutant987'
p1
F0.0006323895987085402
sS'mutant986'
p2
F0.00038252620933715964
sS'mutant358'
p3
F0.0003409919724600868
sS'mutant359'
p4
F0.00012904399536658857
sS'mutant828'
p5
F0.0017667266185275267
sS'mutant829'
p6
F0.0002844889611045442
sS'mutant981'
p7
F0.00028202158069600525
sS'mutant980'
p8
F0.0005499790930633383
sS'mutant824'
p9
F0.000707809193196215
sS'mutant825'
p10
F0.000802063124802404
sS'mutant826'
p11
F0.0026558882717513566
sS'mutant827'
p12
F0.0003635273801914095
sS'mutant820'
p13
F0.00038450011366399084
sS'mutant357'
p14
F0.0006521286419768521
sS'mutant822'
p15
F0.00017501951697903155
sS'mutant355'
p16
F0.0004601664461925195
sS'mutant49'
p17
F0.0010200973069036316
sS'mutant48'
p18
F0.00023226274245713584
sS'mutant41'
p19
F0.00011596687920133198
sS'mutant40'
p20
F0.0012601734206544742
sS'mutant43'
p21
F0.00020874038256239757
sS'mutant42'
p22
F0.00013833779490541874
sS'mutant45'
p23
F0.0008869410108561448
sS'mutant44'
p24
F0.0011994758626044154
sS'mutant47'
p25
F0.0004991510566474353
sS'mutant46'
p26
F0.000326187690008853
sS'mutant1065'
p27
F0.0002686154804762768
sS'mutant169'
p28
F0.00016301159899080852
sS'mutant168'
p29
F0.00045539617740267746
sS'mutant165'
p30
F0.0006630673617880415
sS'mutant164'
p31
F0.00010437019128119878
sS'mutant167'
p32
F0.000968775794406021
sS'mutant166'
p33
F0.0007314960451181891
sS'mutant161'
p34
F0.0008346325461951185
sS'mutant160'
p35
F0.00011654260129665775
sS'mutant163'
p36
F0.0005134618630169614
sS'mutant162'
p37
F0.0005478406967092712
sS'mutant763'
p38
F0.0011564611974822193
sS'mutant762'
p39
F0.00201971535641639
sS'mutant761'
p40
F0.00010642634162164794
sS'mutant760'
p41
F0.0002662303460813558
sS'mutant767'
p42
F0.0006866719676963978
sS'mutant766'
p43
F0.0001656434714265834
sS'mutant765'
p44
F0.00041410867856645856
sS'mutant764'
p45
F0.0008330698719363771
sS'mutant769'
p46
F0.00042142857377845753
sS'mutant768'
p47
F0.00016046197256865157
sS'mutant561'
p48
F0.00242971173430195
sS'mutant560'
p49
F0.00016227138486824683
sS'mutant563'
p50
F0.0002798831843419381
sS'mutant562'
p51
F0.0009332455165230596
sS'mutant565'
p52
F0.0013914380583887479
sS'mutant564'
p53
F0.0010109679993920374
sS'mutant567'
p54
F0.0007013940041340136
sS'mutant566'
p55
F0.0010080071429017907
sS'mutant569'
p56
F0.0006589550611071432
sS'mutant568'
p57
F0.0006462069289963584
sS'mutant1071'
p58
F0.0009486255210696192
sS'mutant1070'
p59
F0.0007661216168513528
sS'mutant1073'
p60
F0.000260884355196188
sS'mutant1072'
p61
F0.00038532257380017047
sS'mutant1075'
p62
F0.0008992779128988397
sS'mutant1074'
p63
F0.0006905375303364422
sS'mutant1077'
p64
F0.00019870636890100574
sS'mutant1076'
p65
F0.00023612830509718024
sS'mutant1079'
p66
F0.0010077604048609368
sS'mutant1078'
p67
F0.00023876017753295516
sS'mutant783'
p68
F0.00014483522998123805
sS'mutant782'
p69
F0.0006877411658734313
sS'mutant785'
p70
F0.00029452297476593607
sS'mutant784'
p71
F0.0014385650241918425
sS'mutant787'
p72
F0.0009112858308870628
sS'mutant786'
p73
F0.00019064625956644507
sS'mutant1479'
p74
F0.0003444463050320414
sS'mutant1478'
p75
F0.0004911731933264926
sS'mutant1475'
p76
F0.00029402949868422826
sS'mutant1474'
p77
F0.0021453872652246416
sS'mutant1477'
p78
F0.00027330350325250084
sS'mutant1476'
p79
F0.0020772875659489662
sS'mutant1471'
p80
F0.0009768359037405816
sS'mutant1470'
p81
F0.0006852737854648923
sS'mutant1473'
p82
F0.0003877899542087095
sS'mutant1472'
p83
F0.0002505213574803243
sS'mutant305'
p84
F0.0006458779449418866
sS'mutant304'
p85
F0.0009084894664240519
sS'mutant307'
p86
F0.000613473015576408
sS'mutant306'
p87
F0.0019623076389110494
sS'mutant301'
p88
F0.000478178323174854
sS'mutant300'
p89
F0.0009716544048826497
sS'mutant303'
p90
F0.00016671266960361698
sS'mutant302'
p91
F0.0001695912800802458
sS'mutant309'
p92
F0.0013568947326692022
sS'mutant308'
p93
F0.0005089383322679733
sS'mutant1277'
p94
F0.00027223430507546727
sS'mutant1276'
p95
F0.0006856850155329821
sS'mutant1275'
p96
F0.0004405918949514436
sS'mutant1274'
p97
F0.0018789101811024322
sS'mutant1273'
p98
F0.00023925365361466294
sS'mutant1272'
p99
F0.0002451753665951565
sS'mutant1271'
p100
F0.00029937548956939604
sS'mutant1270'
p101
F0.00040942065579023453
sS'mutant411'
p102
F0.0008320006737593435
sS'mutant410'
p103
F0.00023645728915165211
sS'mutant413'
p104
F0.0007908776669503606
sS'mutant412'
p105
F0.0002809523825189717
sS'mutant415'
p106
F5.0910282429520924e-05
sS'mutant414'
p107
F0.0003297242685944255
sS'mutant1279'
p108
F0.0009401541816669688
sS'mutant1278'
p109
F0.0005222621864740838
sS'mutant1109'
p110
F0.0002775802959606351
sS'mutant1108'
p111
F0.0014045151745540046
sS'mutant1101'
p112
F0.00021507332561098097
sS'mutant1100'
p113
F0.00038918813644021487
sS'mutant1103'
p114
F0.0020786857481804714
sS'mutant1102'
p115
F0.0007868476122830803
sS'mutant1105'
p116
F0.0015607826004281399
sS'mutant1104'
p117
F0.00037627551230219424
sS'mutant1107'
p118
F0.00031072543944867534
sS'mutant1106'
p119
F0.0005786007058023905
sS'mutant1299'
p120
F0.0005696358903180322
sS'mutant1298'
p121
F0.00021285268324329587
sS'mutant1291'
p122
F0.0008964815484358288
sS'mutant1290'
p123
F0.0021310764588551158
sS'mutant1293'
p124
F0.0005541736397578546
sS'mutant1292'
p125
F0.0005878122593276026
sS'mutant1295'
p126
F0.0017522513201307646
sS'mutant1294'
p127
F0.00023004210008945077
sS'mutant1297'
p128
F0.001429929192761956
sS'mutant1296'
p129
F0.00046781532545899033
sS'mutant38'
p130
F0.000978069593944851
sS'mutant39'
p131
F0.0008836511703114261
sS'mutant34'
p132
F0.0005155180133574106
sS'mutant35'
p133
F0.001200545060781449
sS'mutant36'
p134
F0.00038951712049468674
sS'mutant37'
p135
F0.0004988220725929635
sS'mutant30'
p136
F0.0007875878264056419
sS'mutant31'
p137
F0.0015783832473423845
sS'mutant32'
p138
F0.00017181192244793088
sS'mutant33'
p139
F0.000157007639996697
sS'mutant178'
p140
F0.0012213533022267943
sS'mutant179'
p141
F0.0004307223733172877
sS'mutant176'
p142
F0.0005376421910206434
sS'mutant177'
p143
F0.0005660993117324596
sS'mutant174'
p144
F0.000420194883574188
sS'mutant175'
p145
F0.00024624456477219007
sS'mutant172'
p146
F0.00065706340279393
sS'mutant173'
p147
F0.0021194797709349826
sS'mutant170'
p148
F0.000171482938393459
sS'mutant171'
p149
F0.00032330907953222415
sS'mutant1455'
p150
F0.002442295374385499
sS'mutant1454'
p151
F0.0006513061818406723
sS'mutant899'
p152
F0.0013102612429478156
sS'mutant898'
p153
F0.0005398628333883285
sS'mutant774'
p154
F0.0004826196079102242
sS'mutant775'
p155
F0.00038680300204529386
sS'mutant776'
p156
F0.0001596395124324719
sS'mutant777'
p157
F0.00029715484720171096
sS'mutant770'
p158
F0.0001440127698450584
sS'mutant771'
p159
F8.685179038057204e-05
sS'mutant772'
p160
F0.000666686186387232
sS'mutant773'
p161
F0.0008994424049260756
sS'mutant778'
p162
F0.0008483676304693188
sS'mutant779'
p163
F0.0007980330701351236
sS'mutant572'
p164
F0.0007375822501259186
sS'mutant573'
p165
F0.0010661550745296926
sS'mutant570'
p166
F0.00015643191790137124
sS'mutant571'
p167
F0.0004002091022650223
sS'mutant576'
p168
F0.0004711874120173269
sS'mutant577'
p169
F0.0003328496171119082
sS'mutant574'
p170
F0.0006031922638741623
sS'mutant575'
p171
F0.002171623743568773
sS'mutant578'
p172
F0.0003135218039116862
sS'mutant579'
p173
F0.0002649966558770863
sS'mutant897'
p174
F9.482965370151474e-05
sS'mutant1044'
p175
F0.0002248606012315189
sS'mutant1045'
p176
F0.0012603379126817102
sS'mutant1046'
p177
F0.00034395282895033363
sS'mutant1047'
p178
F0.00031829207270152825
sS'mutant1040'
p179
F0.0003391825601604916
sS'mutant1041'
p180
F0.0006343635030353714
sS'mutant1042'
p181
F0.0017015877757420976
sS'mutant1043'
p182
F0.00015059245093449565
sS'mutant792'
p183
F0.002010503802891178
sS'mutant793'
p184
F0.0014089564592893746
sS'mutant790'
p185
F0.00016317609101804446
sS'mutant791'
p186
F0.000666603940373614
sS'mutant1048'
p187
F0.0020565615705172386
sS'mutant1049'
p188
F0.0010876212840839818
sS'mutant794'
p189
F0.0013039282998992322
sS'mutant795'
p190
F0.0007002425599433621
sS'mutant1459'
p191
F0.000318785548783236
sS'mutant1458'
p192
F0.00037018930729446477
sS'mutant1440'
p193
F0.0002841599770500724
sS'mutant1441'
p194
F0.00023637504313803415
sS'mutant1442'
p195
F0.0008288753252418609
sS'mutant1443'
p196
F0.0004736547924258659
sS'mutant1444'
p197
F0.0022616831284804455
sS'mutant1445'
p198
F0.0011090874936382708
sS'mutant1446'
p199
F0.0003465847013861085
sS'mutant1447'
p200
F0.0007375822501259186
sS'mutant1448'
p201
F0.00022938413198050705
sS'mutant1449'
p202
F0.0005471004825867095
sS'mutant710'
p203
F0.0004446219496187239
sS'mutant316'
p204
F0.0006815727148520839
sS'mutant317'
p205
F0.0014465428875127851
sS'mutant314'
p206
F8.142355348178629e-05
sS'mutant315'
p207
F0.0013544273522606632
sS'mutant312'
p208
F0.0010179589105495646
sS'mutant313'
p209
F0.00021770519804675586
sS'mutant310'
p210
F0.0023321679621510424
sS'mutant311'
p211
F0.00036895561709019526
sS'mutant716'
p212
F0.0005305690338494983
sS'mutant318'
p213
F0.0007359373298535594
sS'mutant717'
p214
F0.0004502146785447456
sS'mutant714'
p215
F0.000826243452806086
sS'mutant247'
p216
F0.0002696846786533104
sS'mutant8'
p217
F0.00019549877436990506
sS'mutant9'
p218
F0.0017909069465312085
sS'mutant408'
p219
F0.0005431526739330472
sS'mutant409'
p220
F0.0003312869428531668
sS'mutant958'
p221
F0.0002746194394703883
sS'mutant959'
p222
F0.0018368824681436516
sS'mutant402'
p223
F0.00015536271972433767
sS'mutant403'
p224
F0.0001299487015163862
sS'mutant400'
p225
F0.00018052999989143527
sS'mutant3'
p226
F0.0004104076079536501
sS'mutant4'
p227
F0.0003710117674306444
sS'mutant5'
p228
F0.0002557851023518741
sS'mutant6'
p229
F0.00030546169457712556
sS'mutant7'
p230
F0.0003191967788513259
sS'mutant1138'
p231
F0.0007651346646879373
sS'mutant1139'
p232
F0.0009943543046412083
sS'mutant1134'
p233
F0.0004801522275016852
sS'mutant1135'
p234
F0.00022395589508172127
sS'mutant1136'
p235
F0.0002741259633886805
sS'mutant1137'
p236
F0.0006940741089220147
sS'mutant1130'
p237
F0.0005749818812031999
sS'mutant1131'
p238
F0.0016640835935323051
sS'mutant1132'
p239
F0.0004804812115561571
sS'mutant1133'
p240
F0.0001369396126739133
sS'mutant939'
p241
F0.0007206395713206177
sS'mutant936'
p242
F0.001606182399945257
sS'mutant937'
p243
F0.00043253178561688296
sS'mutant29'
p244
F0.00015108592701620346
sS'mutant28'
p245
F0.0023852988869482485
sS'mutant27'
p246
F0.0007166917626669553
sS'mutant26'
p247
F0.000620710664774789
sS'mutant25'
p248
F0.00014434175389953024
sS'mutant24'
p249
F0.0007967993799308541
sS'mutant23'
p250
F9.269125734744763e-05
sS'mutant22'
p251
F0.00042940643709940026
sS'mutant21'
p252
F0.0004883768288634819
sS'mutant20'
p253
F0.0004367263323113992
sS'mutant1350'
p254
F0.00017230539852963866
sS'mutant1351'
p255
F0.0004929003596124699
sS'mutant1352'
p256
F0.0002814458586006795
sS'mutant1353'
p257
F0.0007759088924718907
sS'mutant1354'
p258
F0.0005147777992348489
sS'mutant1355'
p259
F0.00019574551241075897
sS'mutant1356'
p260
F0.0003232268335186062
sS'mutant1357'
p261
F0.0002610488472234239
sS'mutant143'
p262
F0.00030496821849541775
sS'mutant142'
p263
F0.001067306518720344
sS'mutant141'
p264
F0.0001825861502318844
sS'mutant140'
p265
F0.000635185963171551
sS'mutant147'
p266
F0.0004392759587335561
sS'mutant146'
p267
F0.0005996556852885897
sS'mutant145'
p268
F0.0005841111887147942
sS'mutant144'
p269
F0.00043976943481526394
sS'mutant149'
p270
F0.0007100298355639
sS'mutant148'
p271
F0.0012423260356993757
sS'mutant1051'
p272
F0.00028465345313178015
sS'mutant434'
p273
F0.00020397011377255555
sS'mutant1057'
p274
F0.00022387364906810333
sS'mutant1056'
p275
F0.0006342812570217534
sS'mutant451'
p276
F0.0004604131842333734
sS'mutant1055'
p277
F0.0014293534706666302
sS'mutant1054'
p278
F0.0006667684324008499
sS'mutant450'
p279
F0.0011022610745079796
sS'mutant547'
p280
F0.0003058729246452154
sS'mutant546'
p281
F0.00021104327094370064
sS'mutant545'
p282
F0.00027618211372912966
sS'mutant544'
p283
F0.0025712571237384695
sS'mutant543'
p284
F0.0005741594210670203
sS'mutant542'
p285
F0.0004229912480371989
sS'mutant541'
p286
F0.0003826907013643956
sS'mutant540'
p287
F0.0006680021226051194
sS'mutant549'
p288
F0.00029435848273870013
sS'mutant548'
p289
F0.00015931052837800004
sS'mutant1457'
p290
F0.0007554296350810172
sS'mutant1456'
p291
F0.0011613959582992973
sS'mutant329'
p292
F0.0012499749149658466
sS'mutant328'
p293
F0.00042258001796910904
sS'mutant1453'
p294
F0.00019237342585242236
sS'mutant1452'
p295
F0.0012758001632418878
sS'mutant1451'
p296
F0.0005827952524969067
sS'mutant1450'
p297
F0.000813988796777009
sS'mutant323'
p298
F0.0005206172662017244
sS'mutant322'
p299
F0.00043541039609351173
sS'mutant321'
p300
F0.0004213463277648396
sS'mutant320'
p301
F0.0004473360680681168
sS'mutant327'
p302
F0.0015774785411925868
sS'mutant326'
p303
F0.00028128136657344356
sS'mutant325'
p304
F0.00019097524362091694
sS'mutant324'
p305
F0.00047603992682078693
sS'mutant1059'
p306
F0.0009578370745948315
sS'mutant1058'
p307
F0.0003247072617637296
sS'mutant439'
p308
F0.0002611310932370419
sS'mutant438'
p309
F0.0009076670062878723
sS'mutant437'
p310
F6.941563549356326e-05
sS'mutant436'
p311
F0.0008468049562105775
sS'mutant435'
p312
F0.00044717157604088085
sS'mutant1050'
p313
F0.0009507639174236864
sS'mutant433'
p314
F0.00045276430496690257
sS'mutant432'
p315
F0.0018355665319257641
sS'mutant431'
p316
F0.00095183311560072
sS'mutant430'
p317
F0.0004646899769415076
sS'mutant1123'
p318
F0.0014175100447056431
sS'mutant1122'
p319
F0.0012324565140652197
sS'mutant1121'
p320
F0.00031393303397977604
sS'mutant1120'
p321
F0.0003968370157066857
sS'mutant1127'
p322
F0.00011555564913324215
sS'mutant1126'
p323
F0.0004892815350132795
sS'mutant1125'
p324
F0.0007037791385289346
sS'mutant1124'
p325
F0.0004392759587335561
sS'mutant1129'
p326
F0.0019910114976637197
sS'mutant1128'
p327
F0.0017598179533836174
sS'mutant459'
p328
F0.00016227138486824683
sS'mutant458'
p329
F0.00030348779025029436
sS'mutant645'
p330
F0.0001586525602690563
sS'mutant1053'
p331
F0.0009047883958112434
sS'mutant646'
p332
F0.0005042503094917492
sS'mutant1052'
p333
F0.0014669398988900407
sS'mutant640'
p334
F0.000166630423589999
sS'mutant12'
p335
F0.00033581047360215497
sS'mutant13'
p336
F0.0002700959087214002
sS'mutant10'
p337
F0.0003589216034288034
sS'mutant11'
p338
F0.0008561810017630255
sS'mutant16'
p339
F0.0009366176030813963
sS'mutant17'
p340
F0.0003257764599407631
sS'mutant14'
p341
F0.0002533999679569531
sS'mutant15'
p342
F0.0004439639815097802
sS'mutant18'
p343
F0.0021309942128414977
sS'mutant19'
p344
F0.0006952255531126662
sS'mutant971'
p345
F0.000159392774391618
sS'mutant789'
p346
F0.0001461511661991255
sS'mutant788'
p347
F0.00022592979940855247
sS'mutant154'
p348
F0.00019722594065588235
sS'mutant155'
p349
F0.0013547563363151352
sS'mutant156'
p350
F0.0005703761044405939
sS'mutant157'
p351
F0.00035061475605338886
sS'mutant150'
p352
F0.0009396607055852609
sS'mutant151'
p353
F0.00021564904770630673
sS'mutant152'
p354
F0.0013462849969124847
sS'mutant153'
p355
F0.00037792043257455356
sS'mutant158'
p356
F0.0005001380088108509
sS'mutant159'
p357
F0.0003446930430728953
sS'mutant781'
p358
F0.0006093607148955097
sS'mutant780'
p359
F0.00043006440520834395
sS'mutant558'
p360
F0.0015759981129474636
sS'mutant559'
p361
F0.0003275036262267404
sS'mutant550'
p362
F7.467938036511308e-05
sS'mutant551'
p363
F0.0005807391021564576
sS'mutant552'
p364
F0.0005461135304232939
sS'mutant553'
p365
F0.0004480762821906785
sS'mutant554'
p366
F8.701628240780798e-05
sS'mutant555'
p367
F0.0004946275258984473
sS'mutant556'
p368
F0.0015285421630898972
sS'mutant557'
p369
F0.00014335480173611464
sS'mutant338'
p370
F0.0003263521820360889
sS'mutant339'
p371
F0.00026491440986346835
sS'mutant888'
p372
F0.0009946010426820622
sS'mutant889'
p373
F0.0006397917399341571
sS'mutant334'
p374
F0.00015758336209202277
sS'mutant335'
p375
F0.00019245567186604033
sS'mutant336'
p376
F0.0004285017309496026
sS'mutant337'
p377
F0.0004543269792256439
sS'mutant330'
p378
F0.00041336846444389687
sS'mutant331'
p379
F0.0003195257629057977
sS'mutant332'
p380
F0.0005891281955454901
sS'mutant333'
p381
F0.00011432195892897268
sS'mutant1332'
p382
F0.0001784738495509861
sS'mutant1333'
p383
F0.00034115646448732275
sS'mutant1330'
p384
F0.0006200526966658453
sS'mutant1331'
p385
F0.0015285421630898972
sS'mutant1336'
p386
F0.00025035686545308834
sS'mutant1337'
p387
F0.0009136709652819838
sS'mutant1334'
p388
F9.935318445050287e-05
sS'mutant1335'
p389
F0.0013524534479338322
sS'mutant1484'
p390
F0.0002147443415565091
sS'mutant1485'
p391
F0.0010544761405959415
sS'mutant1338'
p392
F0.0007299333708594479
sS'mutant1339'
p393
F0.00012961971746191435
sS'mutant1480'
p394
F0.0013343593249378796
sS'mutant1481'
p395
F0.0007425992569566146
sS'mutant1482'
p396
F0.00014870079262128245
sS'mutant1483'
p397
F0.0008206507238800642
sS'mutant420'
p398
F0.0003917377628623718
sS'mutant421'
p399
F0.0007532912387269501
sS'mutant422'
p400
F0.00015067469694811362
sS'mutant423'
p401
F0.0002857226513088137
sS'mutant424'
p402
F0.0003726566877030037
sS'mutant425'
p403
F0.00021877439622378943
sS'mutant426'
p404
F0.00025808799073317714
sS'mutant427'
p405
F0.0002430369702410894
sS'mutant428'
p406
F0.0006844513253287126
sS'mutant1027'
p407
F0.0004388647286654663
sS'mutant1024'
p408
F0.0025923943492382868
sS'mutant1025'
p409
F0.000751152842372883
sS'mutant1022'
p410
F0.0003224043733824265
sS'mutant1023'
p411
F0.00046436099288703575
sS'mutant1020'
p412
F0.0010131886417597226
sS'mutant1021'
p413
F0.0002490409292352009
sS'mutant1156'
p414
F0.00037512406811154273
sS'mutant1157'
p415
F0.0003819504872418339
sS'mutant1154'
p416
F0.0006888103640504649
sS'mutant1155'
p417
F0.001797239889579792
sS'mutant1152'
p418
F0.00032404929365478585
sS'mutant1153'
p419
F0.00015380004546559632
sS'mutant1150'
p420
F0.00032668116609056074
sS'mutant1151'
p421
F0.0013699718488344589
sS'mutant1158'
p422
F0.0017617918577104486
sS'mutant1159'
p423
F0.0005440573800828448
sS'mutant240'
p424
F0.0009259256213110607
sS'mutant241'
p425
F0.0004050616170684823
sS'mutant887'
p426
F0.00016654817757638104
sS'mutant419'
p427
F0.0006226023230880023
sS'mutant529'
p428
F0.00041320397241666093
sS'mutant528'
p429
F0.00045350451908946426
sS'mutant418'
p430
F0.00020471032789511726
sS'mutant525'
p431
F0.0016381760992426459
sS'mutant524'
p432
F0.00022280445089106976
sS'mutant527'
p433
F0.0017886040581499055
sS'mutant526'
p434
F0.0002603086331008622
sS'mutant521'
p435
F0.0003229800954777523
sS'mutant520'
p436
F0.0006743350656537028
sS'mutant523'
p437
F0.00046411425484618187
sS'mutant522'
p438
F0.0006630673617880415
sS'mutant948'
p439
F0.0002468202868675158
sS'mutant943'
p440
F0.0009032257215525021
sS'mutant942'
p441
F0.00036122449181010647
sS'mutant941'
p442
F0.0010196038308219238
sS'mutant940'
p443
F0.001819035083188553
sS'mutant947'
p444
F0.0005345168425031607
sS'mutant946'
p445
F0.0006273725918778443
sS'mutant631'
p446
F0.0001879321411170522
sS'mutant630'
p447
F0.0015060890013721925
sS'mutant633'
p448
F0.00016465651926316784
sS'mutant632'
p449
F0.0004482407742179144
sS'mutant635'
p450
F0.0005063064598321983
sS'mutant634'
p451
F0.0003402517583375251
sS'mutant189'
p452
F0.002659178112296075
sS'mutant188'
p453
F0.00032758587224035837
sS'mutant639'
p454
F0.0014778786187012302
sS'mutant638'
p455
F7.262323002466393e-05
sS'mutant185'
p456
F0.00028432446907730827
sS'mutant416'
p457
F0.000910627862778119
sS'mutant183'
p458
F0.0005717742866720993
sS'mutant182'
p459
F0.0001485363005940465
sS'mutant181'
p460
F0.0005327896762171835
sS'mutant180'
p461
F0.0008756733069904835
sS'mutant1493'
p462
F0.0003297242685944255
sS'mutant858'
p463
F0.0011297312430563803
sS'mutant1323'
p464
F0.0008611157625801035
sS'mutant1322'
p465
F0.0026705280621753544
sS'mutant1325'
p466
F0.00019031727551197322
sS'mutant1324'
p467
F0.0006232602911969459
sS'mutant1327'
p468
F0.0003074355989039567
sS'mutant1494'
p469
F0.0012387072111001852
sS'mutant851'
p470
F0.0002876965556356449
sS'mutant1328'
p471
F0.0013122351472746468
sS'mutant853'
p472
F0.0009272415575289481
sS'mutant1498'
p473
F0.00042142857377845753
sS'mutant855'
p474
F0.0017033971880416928
sS'mutant854'
p475
F0.00026943794061245644
sS'mutant857'
p476
F0.0004692957537041137
sS'mutant856'
p477
F0.00043565713413436566
sS'mutant455'
p478
F0.0008359484824130059
sS'mutant454'
p479
F0.00014483522998123805
sS'mutant457'
p480
F0.0006542670383309191
sS'mutant456'
p481
F5.650301135554261e-05
sS'mutant1039'
p482
F0.00041419092458007655
sS'mutant1038'
p483
F0.0006808325007295221
sS'mutant453'
p484
F0.000405719585177426
sS'mutant452'
p485
F0.0005013716990151204
sS'mutant1035'
p486
F0.0003998801182105505
sS'mutant1034'
p487
F0.0003033232982230584
sS'mutant1037'
p488
F7.591307056938258e-05
sS'mutant1036'
p489
F0.00029328928456166657
sS'mutant1031'
p490
F0.001263134277144721
sS'mutant1030'
p491
F0.0002649966558770863
sS'mutant1033'
p492
F0.0005449620862326424
sS'mutant1032'
p493
F0.0003150022321568096
sS'mutant1145'
p494
F0.0005021941591513001
sS'mutant1144'
p495
F7.9696387195809e-05
sS'mutant1147'
p496
F0.0004085159496404369
sS'mutant1146'
p497
F0.0009441019903206312
sS'mutant1141'
p498
F0.0006154469199032392
sS'mutant1140'
p499
F0.0005643721454464824
sS'mutant1143'
p500
F0.0003900928425900125
sS'mutant1142'
p501
F0.0010677999948020519
sS'mutant1149'
p502
F0.0015661285913133075
sS'mutant1148'
p503
F0.0003048037264681818
sS'mutant953'
p504
F0.00012180634616820758
sS'mutant213'
p505
F0.0012072892338981223
sS'mutant212'
p506
F0.002094230244754267
sS'mutant747'
p507
F0.00021581353973354266
sS'mutant746'
p508
F0.00048418228216896554
sS'mutant741'
p509
F0.00027535965359295003
sS'mutant740'
p510
F0.0002744549474431524
sS'mutant743'
p511
F0.0007940852614814613
sS'mutant742'
p512
F0.0002307000681983945
sS'mutant190'
p513
F0.00024821846909902127
sS'mutant191'
p514
F0.0013799236164822328
sS'mutant620'
p515
F0.0006415189062201344
sS'mutant621'
p516
F0.000248794191194347
sS'mutant194'
p517
F0.00028901249185353235
sS'mutant195'
p518
F0.00027256328912993915
sS'mutant196'
p519
F0.0006290175121502036
sS'mutant197'
p520
F0.00029485195882040794
sS'mutant895'
p521
F0.00026006189506000833
sS'mutant538'
p522
F0.0005957901226485453
sS'mutant539'
p523
F0.0002724810431163212
sS'mutant536'
p524
F0.00038367765352781115
sS'mutant537'
p525
F0.0006680021226051194
sS'mutant534'
p526
F7.418590428340529e-05
sS'mutant535'
p527
F0.000586907553177805
sS'mutant532'
p528
F0.0008377578947126012
sS'mutant533'
p529
F0.0003582636353198597
sS'mutant530'
p530
F0.00043253178561688296
sS'mutant531'
p531
F0.0004263633345955355
sS'mutant894'
p532
F0.0006008071294792413
sS'mutant964'
p533
F0.0015540384273114666
sS'mutant1316'
p534
F0.0016557767461568905
sS'mutant1317'
p535
F0.001364543611935673
sS'mutant963'
p536
F0.0026266909369169786
sS'mutant962'
p537
F0.00020183171741848844
sS'mutant622'
p538
F0.00020076251924145487
sS'mutant623'
p539
F7.796922090983173e-05
sS'mutant192'
p540
F0.0005858383550007715
sS'mutant193'
p541
F0.0005635496853103026
sS'mutant626'
p542
F0.00043713756237948905
sS'mutant627'
p543
F0.0014556721950243793
sS'mutant624'
p544
F0.0001857114987493671
sS'mutant625'
p545
F0.0006434928105469655
sS'mutant198'
p546
F0.0001652322413584936
sS'mutant199'
p547
F0.000212605945202442
sS'mutant628'
p548
F0.00042381370817337854
sS'mutant629'
p549
F0.000630415694381709
sS'mutant896'
p550
F0.0003456799952363109
sS'mutant1314'
p551
F0.00038754321616785555
sS'mutant1315'
p552
F0.0007167740086805733
sS'mutant848'
p553
F0.00038450011366399084
sS'mutant849'
p554
F0.0013910268283206582
sS'mutant1310'
p555
F0.00016802860582150442
sS'mutant1311'
p556
F0.00025693654654252563
sS'mutant1312'
p557
F0.0007341279175539641
sS'mutant1313'
p558
F0.00017140069237984103
sS'mutant842'
p559
F9.573435985131236e-05
sS'mutant846'
p560
F0.0005487454028590688
sS'mutant840'
p561
F0.0003363861956974807
sS'mutant841'
p562
F0.0007740994801722956
sS'mutant1318'
p563
F0.00022634102947664228
sS'mutant1319'
p564
F0.00035645422302026445
sS'mutant844'
p565
F0.0019707789783137003
sS'mutant845'
p566
F0.0003756997902068685
sS'mutant891'
p567
F0.00046386751680532794
sS'mutant998'
p568
F0.000785038199983485
sS'mutant999'
p569
F0.0003789073847379691
sS'mutant990'
p570
F0.0020716948370229442
sS'mutant991'
p571
F0.0004590972480154859
sS'mutant992'
p572
F0.0003676396808723078
sS'mutant993'
p573
F0.0008808548058484154
sS'mutant994'
p574
F0.00029756607726980083
sS'mutant995'
p575
F0.001533559169920593
sS'mutant996'
p576
F0.0022577353198267834
sS'mutant997'
p577
F0.0003125348517482706
sS'mutant1000'
p578
F0.0020446358985426335
sS'mutant1001'
p579
F0.0007844624778881593
sS'mutant444'
p580
F0.0002601441410736263
sS'mutant1003'
p581
F0.0002677930203400971
sS'mutant1004'
p582
F0.00013184035982959942
sS'mutant1005'
p583
F0.0023445048641937373
sS'mutant440'
p584
F0.0005271147012775438
sS'mutant1007'
p585
F0.00045934398605633985
sS'mutant1008'
p586
F0.0005333653983125092
sS'mutant1009'
p587
F0.0006947320770309584
sS'mutant890'
p588
F0.0003748773300706888
sS'mutant448'
p589
F0.0014506551881936834
sS'mutant449'
p590
F0.0008063399175105381
sS'mutant893'
p591
F0.001265766149580496
sS'mutant892'
p592
F0.0016647415616412489
sS'mutant1178'
p593
F0.0003758642822341044
sS'mutant1179'
p594
F0.0010738039537961635
sS'mutant1170'
p595
F0.0002019139634321064
sS'mutant1171'
p596
F0.0002455043506496284
sS'mutant1172'
p597
F0.0018133601082489133
sS'mutant1173'
p598
F0.0003323561410302004
sS'mutant1174'
p599
F0.00016276486094995461
sS'mutant1175'
p600
F0.00044264804529189276
sS'mutant1176'
p601
F0.00016153117074568514
sS'mutant1177'
p602
F0.0006332943048583379
sS'mutant1410'
p603
F0.0013098500128797257
sS'mutant446'
p604
F0.00013496570834708213
sS'mutant447'
p605
F0.00021293492925691384
sS'mutant1002'
p606
F0.0008912178035642791
sS'mutant445'
p607
F9.532312978322253e-05
sS'mutant442'
p608
F0.000816291685158312
sS'mutant443'
p609
F0.0016627676573144176
sS'mutant1006'
p610
F0.00014409501585867633
sS'mutant441'
p611
F8.28217357132917e-05
sS'mutant293'
p612
F0.0009544649880364949
sS'mutant292'
p613
F0.0005596841226702582
sS'mutant291'
p614
F0.0007618448241432186
sS'mutant290'
p615
F0.00023629279712441618
sS'mutant297'
p616
F0.00037668674237028405
sS'mutant296'
p617
F0.000289834951989712
sS'mutant295'
p618
F0.0006924291886496553
sS'mutant294'
p619
F0.00017872058759184
sS'mutant299'
p620
F0.0002881077857037347
sS'mutant298'
p621
F0.00015371779945197835
sS'mutant503'
p622
F0.00030274757612773267
sS'mutant502'
p623
F0.0006433283185197297
sS'mutant501'
p624
F0.0006869187057372516
sS'mutant500'
p625
F0.00065706340279393
sS'mutant507'
p626
F0.0008330698719363771
sS'mutant506'
p627
F0.00031047870140782146
sS'mutant505'
p628
F0.00018061224590505324
sS'mutant504'
p629
F0.002118410572757949
sS'mutant509'
p630
F0.0014243364638359343
sS'mutant508'
p631
F0.00036492556242291493
sS'mutant356'
p632
F0.00022946637799412502
sS'mutant617'
p633
F0.002197531237858432
sS'mutant616'
p634
F0.00026919120257160256
sS'mutant615'
p635
F0.001582166563968811
sS'mutant614'
p636
F0.00037010706128084677
sS'mutant613'
p637
F0.00010173831884542388
sS'mutant612'
p638
F0.0005210284962698143
sS'mutant611'
p639
F0.000338195607997076
sS'mutant610'
p640
F0.0007321540132271329
sS'mutant619'
p641
F0.0004018540225373816
sS'mutant618'
p642
F0.00043269627764411884
sS'mutant879'
p643
F8.43021639584151e-05
sS'mutant1430'
p644
F0.0001879321411170522
sS'mutant877'
p645
F0.0012330322361605456
sS'mutant876'
p646
F0.0007316605371454251
sS'mutant875'
p647
F0.00027568863764742185
sS'mutant874'
p648
F0.0002282326877898555
sS'mutant873'
p649
F0.0008319184277457256
sS'mutant872'
p650
F0.0008935206919455821
sS'mutant871'
p651
F0.0002804589064372639
sS'mutant870'
p652
F0.0010504460859286611
sS'mutant479'
p653
F8.093007740007849e-05
sS'mutant478'
p654
F9.754377215090762e-05
sS'mutant473'
p655
F0.0005171629336297699
sS'mutant472'
p656
F0.00016194240081377495
sS'mutant471'
p657
F0.00021778744406037383
sS'mutant470'
p658
F0.0008802790837530896
sS'mutant477'
p659
F0.00013998271517777806
sS'mutant476'
p660
F6.735948515311411e-05
sS'mutant475'
p661
F0.002017165729994233
sS'mutant474'
p662
F0.0016010009010873252
sS'mutant279'
p663
F0.0014755757303199272
sS'mutant278'
p664
F0.0003905863186717203
sS'mutant1015'
p665
F0.00012558966279463402
sS'mutant1014'
p666
F0.0007829820496430359
sS'mutant1013'
p667
F0.0006761444779532981
sS'mutant1012'
p668
F0.00016301159899080852
sS'mutant1011'
p669
F0.0014472831016353468
sS'mutant1010'
p670
F0.00042817274689513075
sS'mutant271'
p671
F0.0005792586739113342
sS'mutant270'
p672
F0.00015445801357454004
sS'mutant273'
p673
F0.000584522418782884
sS'mutant272'
p674
F0.00023974712969637076
sS'mutant275'
p675
F0.0002630227515502551
sS'mutant274'
p676
F0.0015718858122665653
sS'mutant277'
p677
F0.0005624804871332691
sS'mutant276'
p678
F0.001065579352434367
sS'mutant121'
p679
F0.001879074673129668
sS'mutant1432'
p680
F0.00038170374920097996
sS'mutant120'
p681
F0.0016265794113225127
sS'mutant123'
p682
F0.00045695885166141884
sS'mutant650'
p683
F0.0005994911932613538
sS'mutant125'
p684
F0.0004241426922278504
sS'mutant124'
p685
F0.00032372030960031397
sS'mutant127'
p686
F0.00043878248265184837
sS'mutant126'
p687
F0.0005422479677832495
sS'mutant1309'
p688
F0.00021441535750203722
sS'mutant1308'
p689
F0.0008316716897048717
sS'mutant128'
p690
F0.0001410519133548116
sS'mutant1303'
p691
F0.0002576767606650873
sS'mutant1302'
p692
F0.0011946233478009555
sS'mutant1301'
p693
F0.0011603267601222637
sS'mutant1300'
p694
F0.0007787052569349016
sS'mutant1307'
p695
F0.00090816048236958
sS'mutant1306'
p696
F0.0010307070426603493
sS'mutant1305'
p697
F0.0008170318992808738
sS'mutant1304'
p698
F0.0015206465457825724
sS'mutant1169'
p699
F0.00034197892462350244
sS'mutant1168'
p700
F0.0015269794888311558
sS'mutant1167'
p701
F0.0004691312616768778
sS'mutant1166'
p702
F0.00018052999989143527
sS'mutant1165'
p703
F0.00015593844181966345
sS'mutant1164'
p704
F0.0006825596670154994
sS'mutant1163'
p705
F0.0010852361496890607
sS'mutant1162'
p706
F0.0003384423460379299
sS'mutant1161'
p707
F0.001069856145142501
sS'mutant1160'
p708
F0.00023102905225286637
sS'mutant349'
p709
F0.001988050641173473
sS'mutant1438'
p710
F0.0002256008153540806
sS'mutant977'
p711
F0.0008582371521034746
sS'mutant417'
p712
F0.0017784055524612777
sS'mutant1492'
p713
F0.00016876881994406614
sS'mutant970'
p714
F7.311670610637173e-05
sS'mutant284'
p715
F0.0003058729246452154
sS'mutant285'
p716
F0.0011035770107258671
sS'mutant286'
p717
F0.0013192260584321738
sS'mutant287'
p718
F0.0004229090020235809
sS'mutant280'
p719
F0.0002386779315193372
sS'mutant281'
p720
F0.00018135246002761493
sS'mutant282'
p721
F0.0013917670424432199
sS'mutant283'
p722
F0.0009677065962289873
sS'mutant341'
p723
F0.0003250362458182014
sS'mutant288'
p724
F0.0004735725464122479
sS'mutant289'
p725
F0.002524294649962611
sS'mutant514'
p726
F0.0012945522543467841
sS'mutant515'
p727
F0.0005811503322245474
sS'mutant516'
p728
F0.0014908734888528688
sS'mutant517'
p729
F0.0009095586646010854
sS'mutant510'
p730
F0.00015585619580604548
sS'mutant511'
p731
F0.0005560652980710678
sS'mutant512'
p732
F0.00027026040074863613
sS'mutant513'
p733
F0.00162345406280503
sS'mutant518'
p734
F0.0016626854113007997
sS'mutant519'
p735
F0.00027026040074863613
sS'mutant886'
p736
F0.0005373132069661715
sS'mutant340'
p737
F0.0015860321266088554
sS'mutant884'
p738
F0.0003263521820360889
sS'mutant885'
p739
F0.00025619633241996394
sS'mutant882'
p740
F0.00026047312512809815
sS'mutant883'
p741
F0.00020043353518698302
sS'mutant880'
p742
F0.00029962222761024997
sS'mutant881'
p743
F0.00017016700217557156
sS'mutant608'
p744
F0.00013998271517777806
sS'mutant609'
p745
F0.0005610823049017637
sS'mutant726'
p746
F0.0009094764185874675
sS'mutant600'
p747
F0.00017000251014833562
sS'mutant601'
p748
F0.00016194240081377495
sS'mutant602'
p749
F0.000608620500772948
sS'mutant603'
p750
F0.00011284153068384928
sS'mutant604'
p751
F0.00020898712060325148
sS'mutant605'
p752
F0.0004220042958737833
sS'mutant606'
p753
F0.0006056596442827012
sS'mutant607'
p754
F0.0009121905370368604
sS'mutant236'
p755
F0.0005210284962698143
sS'mutant985'
p756
F0.0006177498082845423
sS'mutant723'
p757
F0.0012404343773861624
sS'mutant722'
p758
F0.000688234641955139
sS'mutant860'
p759
F0.00010140933479095202
sS'mutant861'
p760
F0.0008796211156441459
sS'mutant862'
p761
F0.00024089857388702226
sS'mutant863'
p762
F6.801745326205785e-05
sS'mutant864'
p763
F0.001062865233984974
sS'mutant865'
p764
F0.0002911508882075995
sS'mutant866'
p765
F0.0016421239078963082
sS'mutant867'
p766
F0.0007553473890673992
sS'mutant868'
p767
F0.00021416861946118334
sS'mutant869'
p768
F0.00016852208190321224
sS'mutant720'
p769
F0.0003141797720206299
sS'mutant984'
p770
F0.00018447780854509763
sS'mutant468'
p771
F0.0002555383643110202
sS'mutant469'
p772
F0.0014065713248944537
sS'mutant464'
p773
F0.0009200039083305671
sS'mutant465'
p774
F0.0003398405282694353
sS'mutant466'
p775
F0.0011138577624281128
sS'mutant467'
p776
F0.0008051884733198866
sS'mutant460'
p777
F0.0005113234666628944
sS'mutant461'
p778
F0.00016292935297719055
sS'mutant462'
p779
F0.00024336595429556125
sS'mutant463'
p780
F0.00046551243707768726
sS'mutant268'
p781
F0.00045539617740267746
sS'mutant269'
p782
F0.0004229090020235809
sS'mutant262'
p783
F0.0024458319529710713
sS'mutant263'
p784
F0.00040136054645567386
sS'mutant260'
p785
F0.0003726566877030037
sS'mutant261'
p786
F0.00035209518429851224
sS'mutant266'
p787
F0.0003821149792690698
sS'mutant267'
p788
F0.0004474183140817348
sS'mutant264'
p789
F0.00042817274689513075
sS'mutant265'
p790
F0.0013830489649997153
sS'mutant1202'
p791
F0.0024576753789320584
sS'mutant1203'
p792
F0.0001514149110706753
sS'mutant1200'
p793
F0.0007766491065944525
sS'mutant1201'
p794
F0.0011128708102646973
sS'mutant1206'
p795
F0.00010404120722672692
sS'mutant1207'
p796
F0.00012460271063121842
sS'mutant1204'
p797
F0.0005091028242952092
sS'mutant1205'
p798
F0.0009150691475134892
sS'mutant1208'
p799
F0.0013316452064884867
sS'mutant1209'
p800
F0.0005014539450287384
sS'mutant982'
p801
F0.00011678933933751165
sS'mutant1488'
p802
F0.0005905263777769955
sS'mutant1489'
p803
F0.00030685987680863095
sS'mutant1378'
p804
F0.0009345614527409471
sS'mutant1379'
p805
F0.00010469917533567066
sS'mutant1376'
p806
F0.0004906797172447849
sS'mutant1377'
p807
F0.0017169677802886573
sS'mutant1374'
p808
F0.0007277949745053807
sS'mutant1375'
p809
F0.00034625571733163665
sS'mutant1372'
p810
F9.096409106147034e-05
sS'mutant1373'
p811
F0.0004900217491358411
sS'mutant1370'
p812
F0.00045687660564780084
sS'mutant1371'
p813
F0.0012741552429695285
sS'mutant1487'
p814
F0.0010360530335455172
sS'mutant1192'
p815
F0.0003893526284674508
sS'mutant1193'
p816
F0.0013417614661634966
sS'mutant1190'
p817
F0.0025062005269666583
sS'mutant1191'
p818
F0.00017115395433898716
sS'mutant1196'
p819
F0.001137297876309233
sS'mutant1197'
p820
F0.00029789506132427265
sS'mutant1194'
p821
F0.0002094805966849593
sS'mutant1195'
p822
F0.000780350177207261
sS'mutant1198'
p823
F0.00013661062861944145
sS'mutant1199'
p824
F0.0002043813438406454
sS'mutant989'
p825
F0.0009343147147000932
sS'mutant1431'
p826
F0.0009425393160618898
sS'mutant1346'
p827
F0.0001181052755553991
sS'mutant243'
p828
F0.0005928292661582985
sS'mutant1433'
p829
F0.0015294468692396948
sS'mutant838'
p830
F0.00028712083354031915
sS'mutant1435'
p831
F0.0004841000361553476
sS'mutant988'
p832
F0.0009012518172256709
sS'mutant1434'
p833
F0.0003736436398664193
sS'mutant1028'
p834
F0.0011155849287140902
sS'mutant1029'
p835
F0.001630444973962557
sS'mutant1026'
p836
F0.0002591571889102107
sS'mutant429'
p837
F0.0001992820909963315
sS'mutant831'
p838
F0.0002328384645524616
sS'mutant830'
p839
F0.0004982463504976377
sS'mutant837'
p840
F0.0003613067378237244
sS'mutant836'
p841
F0.0001606264645958875
sS'mutant1349'
p842
F0.0025492974381024726
sS'mutant834'
p843
F0.0005684022001137627
sS'mutant389'
p844
F5.790119358704803e-05
sS'mutant388'
p845
F0.0005476762046820353
sS'mutant385'
p846
F0.00021441535750203722
sS'mutant384'
p847
F0.0010539004185006156
sS'mutant387'
p848
F0.0006916067285134757
sS'mutant386'
p849
F0.0007842979858609233
sS'mutant381'
p850
F0.0019280932972459757
sS'mutant380'
p851
F0.0010066912066839032
sS'mutant383'
p852
F0.0010255255438024174
sS'mutant382'
p853
F0.00013266281996577908
sS'mutant679'
p854
F0.0009284752477332176
sS'mutant678'
p855
F0.0003180453346606743
sS'mutant727'
p856
F0.0003168938904700228
sS'mutant675'
p857
F0.00040037359429225824
sS'mutant674'
p858
F0.00019270240990689423
sS'mutant677'
p859
F0.0002326739725252257
sS'mutant676'
p860
F0.00038318417744610334
sS'mutant671'
p861
F0.0005124749108535459
sS'mutant670'
p862
F0.0011728281541921945
sS'mutant673'
p863
F0.00022963087002136093
sS'mutant672'
p864
F0.00029847078341959846
sS'mutant815'
p865
F0.00048039896554253914
sS'mutant814'
p866
F0.0009124372750777143
sS'mutant817'
p867
F0.00038055230501032845
sS'mutant816'
p868
F0.001842886427137763
sS'mutant811'
p869
F0.0007567455712989047
sS'mutant810'
p870
F0.0001695912800802458
sS'mutant813'
p871
F0.00033663293373833466
sS'mutant812'
p872
F0.00029098639618036355
sS'mutant819'
p873
F0.00035686545308835426
sS'mutant818'
p874
F0.0010167252203452952
sS'mutant491'
p875
F0.0006680021226051194
sS'mutant490'
p876
F9.269125734744763e-05
sS'mutant493'
p877
F0.000504826031587075
sS'mutant725'
p878
F0.0002938650066569923
sS'mutant495'
p879
F0.0009799612522580644
sS'mutant494'
p880
F0.0007183366829393147
sS'mutant497'
p881
F0.0003593328334968932
sS'mutant496'
p882
F0.0003145087560751018
sS'mutant499'
p883
F0.0003265166740633248
sS'mutant498'
p884
F0.000401031562401202
sS'mutant701'
p885
F0.0006703050109864225
sS'mutant700'
p886
F0.000628030559986788
sS'mutant703'
p887
F0.0020790147322349434
sS'mutant702'
p888
F0.000700571543997834
sS'mutant705'
p889
F0.0002459155807177182
sS'mutant704'
p890
F0.002071941575063798
sS'mutant259'
p891
F0.0008273948969967375
sS'mutant258'
p892
F0.0005322139541218577
sS'mutant257'
p893
F0.00019048176753920913
sS'mutant708'
p894
F0.0020928320625227615
sS'mutant255'
p895
F0.0005927470201446807
sS'mutant254'
p896
F0.0008158804550902222
sS'mutant253'
p897
F0.0010188636166993622
sS'mutant252'
p898
F0.00035908609545603934
sS'mutant251'
p899
F0.000992791630382467
sS'mutant250'
p900
F0.00042735028675895106
sS'mutant1211'
p901
F0.000898702190803514
sS'mutant1210'
p902
F0.00015857031425543834
sS'mutant1213'
p903
F0.000625809917619103
sS'mutant1212'
p904
F0.0002540579360658968
sS'mutant1215'
p905
F0.002123592071615881
sS'mutant1214'
p906
F0.001746329607150271
sS'mutant1217'
p907
F0.0007254098401104597
sS'mutant1216'
p908
F0.0004207706056695138
sS'mutant1219'
p909
F0.0003005269337600476
sS'mutant1218'
p910
F0.0005461957764369119
sS'mutant923'
p911
F0.00039239573097131557
sS'mutant922'
p912
F0.0001036299771586371
sS'mutant925'
p913
F0.0010563677989091547
sS'mutant924'
p914
F0.0006210396488292609
sS'mutant927'
p915
F0.0008581549060898568
sS'mutant926'
p916
F0.0009499414572875067
sS'mutant969'
p917
F0.0004231557400644348
sS'mutant968'
p918
F0.0004933938356941778
sS'mutant1369'
p919
F0.00024196777206405583
sS'mutant1368'
p920
F0.0006581326009709635
sS'mutant1365'
p921
F0.0001531420773566526
sS'mutant1364'
p922
F0.001195610299964371
sS'mutant1367'
p923
F0.00021482658757012707
sS'mutant1366'
p924
F0.0003427191387460641
sS'mutant1361'
p925
F0.00043475242798456803
sS'mutant1360'
p926
F0.000823693826383929
sS'mutant1363'
p927
F0.0007676020450964762
sS'mutant1362'
p928
F0.00040325220476888706
sS'mutant721'
p929
F0.0012553209058510143
sS'mutant1181'
p930
F0.00028786104766288084
sS'mutant1180'
p931
F0.0004150133847162562
sS'mutant1183'
p932
F0.0009677065962289873
sS'mutant1182'
p933
F0.00034814737564484985
sS'mutant1185'
p934
F0.0003063664007269232
sS'mutant1184'
p935
F0.00023653953516527008
sS'mutant1187'
p936
F0.00023645728915165211
sS'mutant1186'
p937
F0.0008326586418682873
sS'mutant1189'
p938
F0.00044569114779575747
sS'mutant1188'
p939
F0.0007412010747251092
sS'mutant1486'
p940
F0.0006555829745488066
sS'mutant910'
p941
F0.00015741887006478684
sS'mutant911'
p942
F0.0008801145917258536
sS'mutant798'
p943
F0.00128542294683519
sS'mutant799'
p944
F0.0002688622185171307
sS'mutant957'
p945
F0.00044914548036771205
sS'mutant796'
p946
F0.0011242207601439766
sS'mutant797'
p947
F0.0006255631795782491
sS'mutant98'
p948
F0.0007208863093614716
sS'mutant99'
p949
F0.0015875125548539789
sS'mutant92'
p950
F0.00028629837340413947
sS'mutant93'
p951
F0.0009123550290640963
sS'mutant90'
p952
F0.00027338574926611883
sS'mutant91'
p953
F0.0002799654303555561
sS'mutant96'
p954
F0.0005471004825867095
sS'mutant97'
p955
F0.000596612582784725
sS'mutant94'
p956
F0.00040761124349063927
sS'mutant95'
p957
F0.00024188552605043786
sS'mutant398'
p958
F0.0002918911023301612
sS'mutant399'
p959
F0.0006443152706831453
sS'mutant396'
p960
F0.000545949038396058
sS'mutant397'
p961
F0.00044404622752339815
sS'mutant394'
p962
F0.0006928404187177452
sS'mutant395'
p963
F0.00020734220033089216
sS'mutant392'
p964
F0.0004910909473128746
sS'mutant393'
p965
F0.0012888772794071445
sS'mutant390'
p966
F0.00027494842352486016
sS'mutant391'
p967
F0.0021652908005201895
sS'mutant668'
p968
F0.0016406434796511849
sS'mutant669'
p969
F0.0004150133847162562
sS'mutant666'
p970
F0.0016176145958381543
sS'mutant667'
p971
F0.0022861101945249817
sS'mutant664'
p972
F0.000850423780809768
sS'mutant665'
p973
F0.00024912317524881884
sS'mutant662'
p974
F0.0001596395124324719
sS'mutant663'
p975
F0.0003001157036919578
sS'mutant660'
p976
F0.0003242137856820218
sS'mutant661'
p977
F0.00013957148510968821
sS'mutant806'
p978
F0.0027461943947038833
sS'mutant807'
p979
F0.00028087013650535375
sS'mutant804'
p980
F6.555007285351887e-05
sS'mutant805'
p981
F0.0005756398493121437
sS'mutant802'
p982
F0.0003799765829150027
sS'mutant803'
p983
F0.0004029232207144152
sS'mutant800'
p984
F0.00011029190426169234
sS'mutant801'
p985
F0.00042266226398272704
sS'mutant918'
p986
F0.0003378666239426041
sS'mutant808'
p987
F0.00027067163081672595
sS'mutant809'
p988
F0.0006417656442609883
sS'mutant492'
p989
F0.00017666443725139087
sS'mutant482'
p990
F0.00020109150329592675
sS'mutant483'
p991
F0.0013847761312856927
sS'mutant480'
p992
F0.0015903089193169896
sS'mutant481'
p993
F0.000635268209185169
sS'mutant486'
p994
F0.0002072599543172742
sS'mutant487'
p995
F0.0017611338896015049
sS'mutant484'
p996
F0.0013026946096949628
sS'mutant485'
p997
F0.0015420305093232435
sS'mutant919'
p998
F0.00034214341665073837
sS'mutant488'
p999
F0.0012463560903666561
sS'mutant489'
p1000
F0.00044338825941445445
sS'mutant712'
p1001
F0.00018998829145750135
sS'mutant713'
p1002
F0.0011478253660523329
sS'mutant242'
p1003
F0.0013160184639010731
sS'mutant711'
p1004
F0.00028473569914539814
sS'mutant244'
p1005
F0.00034633796334525464
sS'mutant245'
p1006
F0.000437302054406725
sS'mutant246'
p1007
F0.0019414993974657042
sS'mutant715'
p1008
F0.0006426703504107859
sS'mutant248'
p1009
F0.0001485363005940465
sS'mutant249'
p1010
F0.0016431931060733418
sS'mutant718'
p1011
F0.0009012518172256709
sS'mutant719'
p1012
F0.0005441396260964628
sS'mutant1224'
p1013
F0.0003052149565362716
sS'mutant1225'
p1014
F0.0005972705508936687
sS'mutant1226'
p1015
F0.00011514441906515232
sS'mutant1227'
p1016
F0.0002779915260287249
sS'mutant1220'
p1017
F0.00044577339380937547
sS'mutant1221'
p1018
F0.0005099252844313889
sS'mutant1222'
p1019
F0.0004037456808505949
sS'mutant1223'
p1020
F0.0014157006324060479
sS'mutant932'
p1021
F0.0008373466646445113
sS'mutant933'
p1022
F0.000502523143205772
sS'mutant930'
p1023
F0.00038441786765037284
sS'mutant931'
p1024
F0.000490268487176695
sS'mutant1228'
p1025
F0.0003210061911509211
sS'mutant1229'
p1026
F0.001120601935544786
sS'mutant934'
p1027
F0.00025784125269232326
sS'mutant935'
p1028
F0.00022025482446891281
sS'mutant1422'
p1029
F0.0011613959582992973
sS'mutant1423'
p1030
F0.00016967352609386374
sS'mutant1420'
p1031
F0.0003109721774895293
sS'mutant1421'
p1032
F0.001524429862408999
sS'mutant1426'
p1033
F0.000333260847179998
sS'mutant1427'
p1034
F0.00011999693386861232
sS'mutant1424'
p1035
F0.0002949342048340259
sS'mutant1425'
p1036
F0.00045778131179759847
sS'mutant1358'
p1037
F0.0023097148004333377
sS'mutant1359'
p1038
F0.00017296336663858239
sS'mutant1428'
p1039
F0.00027330350325250084
sS'mutant1429'
p1040
F0.0016033037894686282
sS'mutant707'
p1041
F0.0015352863362065705
sS'mutant706'
p1042
F0.001149717024365546
sS'mutant709'
p1043
F0.0018271774385367316
sS'mutant256'
p1044
F0.0006670974164553218
sS'mutant319'
p1045
F0.0012380492429912415
sS'mutant929'
p1046
F0.0007032034164336089
sS'mutant928'
p1047
F0.0006934161408130709
sS'mutant921'
p1048
F0.0006562409426577504
sS'mutant920'
p1049
F0.0012523600493607675
sS'mutant89'
p1050
F0.0008520687010821272
sS'mutant88'
p1051
F0.0013323031745974304
sS'mutant85'
p1052
F5.36244008789138e-05
sS'mutant84'
p1053
F0.00045029692455836356
sS'mutant87'
p1054
F0.0005368197308844637
sS'mutant86'
p1055
F0.0007520575485226806
sS'mutant81'
p1056
F0.0003516839542304224
sS'mutant80'
p1057
F0.0003449397811137492
sS'mutant83'
p1058
F0.0005256342730324204
sS'mutant82'
p1059
F0.001043537420784752
sS'mutant0'
p1060
F0.001775362449957413
sS'mutant1'
p1061
F0.0005077046420637038
sS'mutant2'
p1062
F0.00013200485185683536
sS'mutant653'
p1063
F0.0004068710293680776
sS'mutant652'
p1064
F0.0007468760496647488
sS'mutant651'
p1065
F0.00025397569005227886
sS'mutant401'
p1066
F0.00034510427314098514
sS'mutant657'
p1067
F0.0011748843045326436
sS'mutant656'
p1068
F9.672131201472796e-05
sS'mutant655'
p1069
F0.0007231891977427746
sS'mutant654'
p1070
F0.0005245650748553868
sS'mutant129'
p1071
F0.00033901806813325567
sS'mutant406'
p1072
F0.00027955420028746625
sS'mutant659'
p1073
F0.0005888814575046363
sS'mutant658'
p1074
F0.0003016783779506991
sS'mutant407'
p1075
F0.00018784989510343424
sS'mutant404'
p1076
F0.0008927804778230204
sS'mutant405'
p1077
F0.0007622560542113084
sS'mutant235'
p1078
F0.0014648837485495916
sS'mutant234'
p1079
F0.0006745818036945567
sS'mutant237'
p1080
F0.0010515152841056947
sS'mutant724'
p1081
F0.0014967952018333623
sS'mutant231'
p1082
F0.0007104410656319899
sS'mutant230'
p1083
F0.0002444351524725948
sS'mutant233'
p1084
F0.0001451642140357099
sS'mutant232'
p1085
F0.0002430369702410894
sS'mutant239'
p1086
F0.001219708381954435
sS'mutant238'
p1087
F0.00011868099765072487
sS'mutant729'
p1088
F0.0008338100860589388
sS'mutant728'
p1089
F0.0027185597341282466
sS'mutant909'
p1090
F0.0009362063730133064
sS'mutant908'
p1091
F0.00016054421858226954
sS'mutant907'
p1092
F0.0004570410976750368
sS'mutant906'
p1093
F0.00031829207270152825
sS'mutant905'
p1094
F0.00040127830044205587
sS'mutant904'
p1095
F0.00137720949803284
sS'mutant903'
p1096
F0.00020627300215385862
sS'mutant902'
p1097
F0.0014994270742691373
sS'mutant901'
p1098
F0.0006896328241866445
sS'mutant900'
p1099
F0.0014532048146158403
sS'mutant1347'
p1100
F0.0004555606694299134
sS'mutant348'
p1101
F0.0012109903045109307
sS'mutant1345'
p1102
F0.00047957650540635945
sS'mutant1344'
p1103
F0.00024328370828194328
sS'mutant1343'
p1104
F0.00038326642345972133
sS'mutant1342'
p1105
F0.00031895004081047195
sS'mutant1437'
p1106
F0.0009635120495344711
sS'mutant1436'
p1107
F0.00026820425040818694
sS'mutant1439'
p1108
F0.0005135441090305794
sS'mutant832'
p1109
F0.000601547343601803
sS'mutant343'
p1110
F0.0018316187232721016
sS'mutant342'
p1111
F0.00042496515236403005
sS'mutant345'
p1112
F0.0008950011201907055
sS'mutant344'
p1113
F0.00018127021401399696
sS'mutant347'
p1114
F0.001120601935544786
sS'mutant346'
p1115
F0.0002867096034722293
sS'mutant1239'
p1116
F0.00041986589951971615
sS'mutant1238'
p1117
F0.0001760887151560651
sS'mutant1233'
p1118
F0.0016495260491219252
sS'mutant1232'
p1119
F0.0003383601000243119
sS'mutant1231'
p1120
F0.0004801522275016852
sS'mutant1230'
p1121
F0.000864570095152058
sS'mutant1237'
p1122
F0.0006469471431189202
sS'mutant1236'
p1123
F0.00034189667860988444
sS'mutant1235'
p1124
F0.00035875711140156746
sS'mutant1234'
p1125
F0.0004543269792256439
sS'mutant954'
p1126
F0.00028202158069600525
sS'mutant878'
p1127
F0.0003933004371211132
sS'mutant955'
p1128
F0.0007022987102838112
sS'mutant204'
p1129
F0.0013489991153618774
sS'mutant205'
p1130
F0.00022634102947664228
sS'mutant206'
p1131
F0.0008954123502587953
sS'mutant207'
p1132
F0.00020767118438536403
sS'mutant200'
p1133
F0.0001765821912377729
sS'mutant201'
p1134
F0.0007251631020696058
sS'mutant202'
p1135
F0.0012994870151638621
sS'mutant751'
p1136
F0.0012642034753217546
sS'mutant950'
p1137
F0.00037240994966214984
sS'mutant951'
p1138
F0.0005548316078667983
sS'mutant70'
p1139
F0.0001888368472668498
sS'mutant71'
p1140
F0.0011597510380269378
sS'mutant72'
p1141
F0.0003761110202749583
sS'mutant73'
p1142
F0.0012589397304502048
sS'mutant74'
p1143
F0.00013167586780236349
sS'mutant75'
p1144
F0.0019481613245687596
sS'mutant76'
p1145
F0.0012531002634833292
sS'mutant77'
p1146
F7.879168104601139e-05
sS'mutant78'
p1147
F0.0012429840038083195
sS'mutant79'
p1148
F0.0005160114894391184
sS'mutant952'
p1149
F0.00022954862400774296
sS'mutant938'
p1150
F0.0009132597352138939
sS'mutant976'
p1151
F0.0013345238169651156
sS'mutant1063'
p1152
F0.001105962145120788
sS'mutant974'
p1153
F0.001217323247559514
sS'mutant975'
p1154
F0.0015946679580387418
sS'mutant972'
p1155
F0.00179246962078995
sS'mutant973'
p1156
F0.0011030835346441594
sS'mutant644'
p1157
F0.0011868099765072486
sS'mutant133'
p1158
F0.00029649687909276726
sS'mutant130'
p1159
F0.0002516728016709758
sS'mutant131'
p1160
F0.0005756398493121437
sS'mutant136'
p1161
F0.000502523143205772
sS'mutant137'
p1162
F0.0014194839490324744
sS'mutant134'
p1163
F8.06833393592246e-05
sS'mutant135'
p1164
F0.00013661062861944145
sS'mutant138'
p1165
F0.000497506136375076
sS'mutant139'
p1166
F0.001361911739499898
sS'mutant648'
p1167
F0.001016642974331677
sS'mutant637'
p1168
F0.0006302512023544731
sS'mutant956'
p1169
F0.00041509563072987413
sS'mutant738'
p1170
F0.0004055550931501901
sS'mutant739'
p1171
F0.00026326948959110903
sS'mutant730'
p1172
F0.00011440420494259063
sS'mutant731'
p1173
F0.002756063916338039
sS'mutant732'
p1174
F0.0007114280177954055
sS'mutant733'
p1175
F0.0008388270928896348
sS'mutant734'
p1176
F0.002079672700343887
sS'mutant735'
p1177
F0.0012959504365782895
sS'mutant736'
p1178
F0.0003369619177928065
sS'mutant737'
p1179
F0.0015992737348013478
sS'mutant226'
p1180
F0.0008585661361579465
sS'mutant227'
p1181
F0.001275471179187416
sS'mutant224'
p1182
F0.0009543004960092589
sS'mutant225'
p1183
F0.0024098904450200204
sS'mutant222'
p1184
F0.00016391630514060615
sS'mutant223'
p1185
F0.0005838644506739402
sS'mutant220'
p1186
F0.0003191145328377079
sS'mutant221'
p1187
F0.0011946233478009555
sS'mutant228'
p1188
F0.00046608815917301307
sS'mutant229'
p1189
F9.935318445050287e-05
sS'mutant1088'
p1190
F0.00030685987680863095
sS'mutant1089'
p1191
F0.00028119912055982557
sS'mutant912'
p1192
F0.0001343077402381384
sS'mutant913'
p1193
F0.0021327213791274753
sS'mutant914'
p1194
F0.0002638452116864348
sS'mutant915'
p1195
F0.00046674612728195676
sS'mutant916'
p1196
F0.0012581995163276432
sS'mutant917'
p1197
F0.0003312046968395489
sS'mutant1080'
p1198
F0.0012451224001623865
sS'mutant1081'
p1199
F0.0019366468826622443
sS'mutant1082'
p1200
F0.00019245567186604033
sS'mutant1083'
p1201
F0.0005873187832458949
sS'mutant1084'
p1202
F0.00042743253277256906
sS'mutant1085'
p1203
F0.00028925922989438623
sS'mutant1086'
p1204
F0.0014523823544796608
sS'mutant1087'
p1205
F0.00040136054645567386
sS'mutant1404'
p1206
F0.0007115102638090234
sS'mutant1405'
p1207
F0.0007917001270865403
sS'mutant1406'
p1208
F0.0005730079768763688
sS'mutant1407'
p1209
F0.00011991468785499436
sS'mutant1400'
p1210
F0.00040629530727275177
sS'mutant1401'
p1211
F0.0002678752663537151
sS'mutant1402'
p1212
F0.0009556164322271464
sS'mutant1403'
p1213
F0.00022625878346302434
sS'mutant352'
p1214
F0.0011961037760460788
sS'mutant353'
p1215
F0.0003038990203183842
sS'mutant350'
p1216
F0.00012336902042694891
sS'mutant351'
p1217
F0.0002662303460813558
sS'mutant1408'
p1218
F0.0012492347008432848
sS'mutant1409'
p1219
F0.0008517397170276554
sS'mutant354'
p1220
F0.00017501951697903155
sS'mutant823'
p1221
F0.00041246375829409924
sS'mutant1398'
p1222
F0.0004872253846728303
sS'mutant1399'
p1223
F0.00016901555798492002
sS'mutant1394'
p1224
F0.00020980958073943114
sS'mutant1395'
p1225
F0.0007180076988848428
sS'mutant1396'
p1226
F0.000396096801584124
sS'mutant1397'
p1227
F0.0007749219403084752
sS'mutant1390'
p1228
F0.00017888507961907595
sS'mutant1391'
p1229
F0.00016580796345381935
sS'mutant1392'
p1230
F0.0008505060268233859
sS'mutant1393'
p1231
F0.0003916555168487539
sS'mutant949'
p1232
F0.0009487900130968552
sS'mutant1248'
p1233
F0.0012692204821524505
sS'mutant1249'
p1234
F8.907243274825713e-05
sS'mutant1246'
p1235
F0.0007878345644464959
sS'mutant1247'
p1236
F0.0011880436667115182
sS'mutant1244'
p1237
F0.00035127272416233255
sS'mutant1245'
p1238
F0.0005702116124133579
sS'mutant1242'
p1239
F0.0003233913255458421
sS'mutant1243'
p1240
F6.80996992756758e-05
sS'mutant1240'
p1241
F0.0009728880950869192
sS'mutant1241'
p1242
F0.001246109352325802
sS'mutant821'
p1243
F0.0008208152159073002
sS'mutant1465'
p1244
F0.0011045639628892827
sS'mutant1017'
p1245
F0.0008639121270431143
sS'mutant371'
p1246
F0.000314097526007012
sS'mutant1019'
p1247
F0.0003628694120824658
sS'mutant1018'
p1248
F0.00032980651460804344
sS'mutant1341'
p1249
F0.001031200518742057
sS'mutant1340'
p1250
F7.064932569783275e-05
sS'mutant843'
p1251
F0.0005390403732521489
sS'mutant63'
p1252
F0.0019938078621267305
sS'mutant62'
p1253
F0.00021326391331138572
sS'mutant61'
p1254
F0.00028860126178544254
sS'mutant60'
p1255
F0.0010405765642945053
sS'mutant67'
p1256
F0.00032594095196799905
sS'mutant66'
p1257
F0.0002961678950382954
sS'mutant65'
p1258
F0.0005244005828281509
sS'mutant64'
p1259
F0.00010609735756717607
sS'mutant69'
p1260
F0.00014697362633530516
sS'mutant68'
p1261
F0.0010766003182591743
sS'mutant839'
p1262
F0.0013727682132974697
sS'mutant1016'
p1263
F0.0007147178583401242
sS'mutant945'
p1264
F0.0016363666869430506
sS'mutant107'
p1265
F0.0008851315985565495
sS'mutant106'
p1266
F0.00029452297476593607
sS'mutant105'
p1267
F0.00043162707946708533
sS'mutant104'
p1268
F0.00025668980850167175
sS'mutant103'
p1269
F0.0004571233436886548
sS'mutant102'
p1270
F0.0008608690245392496
sS'mutant101'
p1271
F0.0005373954529797895
sS'mutant100'
p1272
F0.0006451377308193249
sS'mutant109'
p1273
F0.0004572878357158907
sS'mutant108'
p1274
F0.00015059245093449565
sS'mutant847'
p1275
F0.0003094095032307879
sS'mutant944'
p1276
F0.0005091028242952092
sS'mutant699'
p1277
F0.001546060563990524
sS'mutant698'
p1278
F0.0002677930203400971
sS'mutant697'
p1279
F0.0017890152882179954
sS'mutant696'
p1280
F0.0003441173209775695
sS'mutant695'
p1281
F0.001087045561988656
sS'mutant694'
p1282
F0.00010708430973059167
sS'mutant693'
p1283
F0.0009229647648208139
sS'mutant692'
p1284
F0.0004972593983342222
sS'mutant691'
p1285
F0.0014591265275963339
sS'mutant690'
p1286
F0.0012468495664483639
sS'mutant219'
p1287
F0.0004055550931501901
sS'mutant218'
p1288
F0.00023884242354657313
sS'mutant749'
p1289
F0.00030134939389622723
sS'mutant748'
p1290
F0.00016712389967170682
sS'mutant745'
p1291
F0.0002231334349455416
sS'mutant744'
p1292
F0.00038540481981378847
sS'mutant211'
p1293
F0.00252717326043924
sS'mutant210'
p1294
F0.0013774562360736938
sS'mutant217'
p1295
F0.00028012992238279205
sS'mutant216'
p1296
F0.0009134242272411298
sS'mutant215'
p1297
F0.00020545054201767896
sS'mutant214'
p1298
F0.0003256119679135272
sS'mutant589'
p1299
F0.00012172410015458961
sS'mutant588'
p1300
F0.0020013744953795835
sS'mutant583'
p1301
F0.0003850758357593166
sS'mutant582'
p1302
F0.0003202659770283594
sS'mutant581'
p1303
F0.00028128136657344356
sS'mutant580'
p1304
F0.00025200178572544767
sS'mutant587'
p1305
F8.389093389032527e-05
sS'mutant586'
p1306
F0.00019385385409754574
sS'mutant585'
p1307
F0.00032363806358669603
sS'mutant584'
p1308
F0.0008005826965572806
sS'mutant965'
p1309
F0.001060644591617289
sS'mutant132'
p1310
F0.0005244828288417688
sS'mutant967'
p1311
F7.402141225616936e-05
sS'mutant966'
p1312
F0.0019730818666950033
sS'mutant961'
p1313
F0.0001717296764343129
sS'mutant960'
p1314
F0.0001451642140357099
sS'mutant1099'
p1315
F0.0005621515030787973
sS'mutant1098'
p1316
F0.00018464230057233357
sS'mutant1097'
p1317
F6.0368573995587005e-05
sS'mutant1096'
p1318
F0.00016440978122231393
sS'mutant1095'
p1319
F0.0023510845452831748
sS'mutant1094'
p1320
F0.00024246124814576362
sS'mutant1093'
p1321
F0.0018409125228109318
sS'mutant1092'
p1322
F0.000929955675978341
sS'mutant1091'
p1323
F0.0005087738402407374
sS'mutant1090'
p1324
F0.0005296643276997007
sS'mutant647'
p1325
F9.104633707508831e-05
sS'mutant833'
p1326
F9.359596349724525e-05
sS'mutant641'
p1327
F0.00011999693386861232
sS'mutant1419'
p1328
F0.0006150356898351494
sS'mutant1418'
p1329
F0.0004197836535060982
sS'mutant642'
p1330
F0.0006403674620294829
sS'mutant1413'
p1331
F0.00019163321172986067
sS'mutant1412'
p1332
F0.00034090972644646887
sS'mutant1411'
p1333
F0.0003050504645090357
sS'mutant643'
p1334
F0.00019475856024734337
sS'mutant1417'
p1335
F0.000326187690008853
sS'mutant1416'
p1336
F0.0022351176660818425
sS'mutant1415'
p1337
F0.00033416555332979565
sS'mutant1414'
p1338
F0.00013636389057858754
sS'mutant369'
p1339
F0.00018201042813655865
sS'mutant368'
p1340
F0.000471022919990091
sS'mutant367'
p1341
F0.002715269893583528
sS'mutant366'
p1342
F0.0004898572571086052
sS'mutant365'
p1343
F0.00010626184959441201
sS'mutant364'
p1344
F0.0003674751888450719
sS'mutant363'
p1345
F0.0003828551933916315
sS'mutant362'
p1346
F0.001384035917163131
sS'mutant361'
p1347
F0.00018595823679022101
sS'mutant360'
p1348
F0.0006462069289963584
sS'mutant649'
p1349
F0.0006318961226268324
sS'mutant1383'
p1350
F0.0025376185041687213
sS'mutant1382'
p1351
F0.0013104257349750516
sS'mutant1381'
p1352
F0.0003293130385263357
sS'mutant1380'
p1353
F0.00017337459670667223
sS'mutant1387'
p1354
F0.00032018373101474145
sS'mutant1386'
p1355
F0.00012986645550276823
sS'mutant1385'
p1356
F0.0006036034939422521
sS'mutant1384'
p1357
F0.00045769906578398053
sS'mutant1389'
p1358
F0.0003573589291700621
sS'mutant1388'
p1359
F0.0002328384645524616
sS'mutant1259'
p1360
F0.001009569817160532
sS'mutant1258'
p1361
F8.676954436695408e-05
sS'mutant1255'
p1362
F0.00042151081979207547
sS'mutant1254'
p1363
F0.00027042489277587207
sS'mutant1257'
p1364
F0.00019533428234266913
sS'mutant1256'
p1365
F0.0022424375612938416
sS'mutant1251'
p1366
F0.0003101497173533496
sS'mutant1250'
p1367
F0.0003656657765454766
sS'mutant1253'
p1368
F0.00038022332095585657
sS'mutant1252'
p1369
F0.0004933938356941778
sS'mutant859'
p1370
F0.0010766003182591743
sS'mutant122'
p1371
F0.0005731724689036047
sS'mutant835'
p1372
F0.00025471590417484055
sS'mutant983'
p1373
F0.0007600354118436234
sS'mutant1348'
p1374
F0.0017326767688896887
sS'mutant56'
p1375
F0.001343159648395002
sS'mutant57'
p1376
F0.001142397129153547
sS'mutant54'
p1377
F0.0005278549154001055
sS'mutant55'
p1378
F0.0001524018632340909
sS'mutant52'
p1379
F0.0016547075479798569
sS'mutant53'
p1380
F0.00019212668781156845
sS'mutant50'
p1381
F0.0009477208149198216
sS'mutant51'
p1382
F0.0005236603687055892
sS'mutant58'
p1383
F0.0003997978721969325
sS'mutant59'
p1384
F0.0004785895532429439
sS'mutant850'
p1385
F0.0008529734072319249
sS'mutant118'
p1386
F0.00017024924818918953
sS'mutant119'
p1387
F6.275370839050802e-05
sS'mutant110'
p1388
F0.000903390213579738
sS'mutant111'
p1389
F0.0006356794392532589
sS'mutant112'
p1390
F9.334922545639135e-05
sS'mutant113'
p1391
F0.0004185499633018287
sS'mutant114'
p1392
F0.001321199962759005
sS'mutant115'
p1393
F0.0015143958487476071
sS'mutant116'
p1394
F0.0014364266278377752
sS'mutant117'
p1395
F0.00021293492925691384
sS'mutant680'
p1396
F0.001606182399945257
sS'mutant681'
p1397
F0.0004753819587118432
sS'mutant682'
p1398
F0.00035999080160583697
sS'mutant683'
p1399
F0.0004410853710331514
sS'mutant684'
p1400
F0.0008797856076713818
sS'mutant685'
p1401
F0.0007257388241649316
sS'mutant686'
p1402
F0.0009089006964921418
sS'mutant687'
p1403
F0.0008098764960961108
sS'mutant688'
p1404
F9.038836896614459e-05
sS'mutant689'
p1405
F0.0009604689470306064
sS'mutant636'
p1406
F0.0002598974030327724
sS'mutant187'
p1407
F0.0001420388655182272
sS'mutant186'
p1408
F0.0016658930058319004
sS'mutant184'
p1409
F0.0007746752022676213
sS'mutant208'
p1410
F0.0001886723552396139
sS'mutant209'
p1411
F0.0003154134622248994
sS'mutant758'
p1412
F0.00028629837340413947
sS'mutant759'
p1413
F0.00031771635060620244
sS'mutant756'
p1414
F0.0012981710789459746
sS'mutant757'
p1415
F0.0014259813841082936
sS'mutant754'
p1416
F7.615980861023647e-05
sS'mutant755'
p1417
F0.0002579234987059412
sS'mutant752'
p1418
F0.0002557028563382561
sS'mutant753'
p1419
F0.0006527043640721778
sS'mutant750'
p1420
F0.0004688022776224059
sS'mutant203'
p1421
F0.0005274436853320157
sS'mutant598'
p1422
F0.00040522610909571826
sS'mutant599'
p1423
F0.00026409194972728866
sS'mutant594'
p1424
F0.00014121640538204754
sS'mutant595'
p1425
F0.0002763466057563656
sS'mutant596'
p1426
F0.0002219819907548901
sS'mutant597'
p1427
F0.00028786104766288084
sS'mutant590'
p1428
F0.0020884730238010093
sS'mutant591'
p1429
F0.0005694713982907963
sS'mutant592'
p1430
F0.0009014985552665247
sS'mutant593'
p1431
F0.0006940741089220147
sS'mutant1062'
p1432
F0.00029608564902467745
sS'mutant1321'
p1433
F0.000451695106789869
sS'mutant1060'
p1434
F0.0011030835346441594
sS'mutant1061'
p1435
F0.0009620316212893477
sS'mutant1066'
p1436
F0.0006068933344869707
sS'mutant1067'
p1437
F0.0008408832432300839
sS'mutant1064'
p1438
F8.33152117949995e-05
sS'mutant1320'
p1439
F0.00015717213202393293
sS'mutant1068'
p1440
F0.00117381510635561
sS'mutant1069'
p1441
F0.0008081493298101334
sS'mutant1491'
p1442
F0.0018803906093475555
sS'mutant978'
p1443
F0.0006580503549573456
sS'mutant979'
p1444
F0.00029337153057528456
sS'mutant1490'
p1445
F0.00014351929376335058
sS'mutant1497'
p1446
F0.00037940086081967694
sS'mutant1496'
p1447
F0.00021392188142032944
sS'mutant1495'
p1448
F0.0007944142455359331
sS'mutant1468'
p1449
F0.0002106320408756108
sS'mutant1469'
p1450
F0.0023065072059022373
sS'mutant1466'
p1451
F0.0006984331476437668
sS'mutant1467'
p1452
F0.0004889525509588076
sS'mutant1464'
p1453
F0.0006538558082628293
sS'mutant1326'
p1454
F0.0006960480132488458
sS'mutant1462'
p1455
F0.0004068710293680776
sS'mutant1463'
p1456
F0.0008299445234188944
sS'mutant1460'
p1457
F0.0008211441999617721
sS'mutant1461'
p1458
F0.0003676396808723078
sS'mutant370'
p1459
F0.0009187702181262976
sS'mutant1329'
p1460
F0.0006691535667957709
sS'mutant372'
p1461
F0.00041830322526097483
sS'mutant373'
p1462
F0.00037594652824772236
sS'mutant374'
p1463
F0.0016223848646279963
sS'mutant375'
p1464
F0.0008704095621189337
sS'mutant376'
p1465
F0.002041017073943443
sS'mutant377'
p1466
F0.0007545249289312196
sS'mutant378'
p1467
F0.0007672730610420043
sS'mutant379'
p1468
F0.0006331298128311019
sS'mutant1499'
p1469
F0.00020183171741848844
sS'mutant852'
p1470
F0.00032454276973649366
sS'mutant1260'
p1471
F0.0003944518813117647
sS'mutant1261'
p1472
F0.0007845447239017773
sS'mutant1262'
p1473
F0.0005781894757343006
sS'mutant1263'
p1474
F0.0009050351338520974
sS'mutant1264'
p1475
F0.0006805857626886682
sS'mutant1265'
p1476
F0.0003562897309930285
sS'mutant1266'
p1477
F0.0004099963778855603
sS'mutant1267'
p1478
F0.0003074355989039567
sS'mutant1268'
p1479
F0.0002352235989473826
sS'mutant1269'
p1480
F0.0002454221046360104
sS'mutant1118'
p1481
F0.0001797075397552556
sS'mutant1119'
p1482
F0.00039149102482151794
sS'mutant1112'
p1483
F0.0005055662457096367
sS'mutant1113'
p1484
F0.0007714676077365206
sS'mutant1110'
p1485
F0.0002521662777526836
sS'mutant1111'
p1486
F0.0003364684417110987
sS'mutant1116'
p1487
F0.0009345614527409471
sS'mutant1117'
p1488
F0.000553351179621675
sS'mutant1114'
p1489
F0.0003548093027479051
sS'mutant1115'
p1490
F0.001601576623182651
sS'mutant1288'
p1491
F0.0026648530872357148
sS'mutant1289'
p1492
F0.0005781072297206827
sS'mutant1282'
p1493
F0.0003270923961586506
sS'mutant1283'
p1494
F0.0006354327012124049
sS'mutant1280'
p1495
F0.0002490409292352009
sS'mutant1281'
p1496
F0.0012020254890265723
sS'mutant1286'
p1497
F0.0003772624644656098
sS'mutant1287'
p1498
F0.0006275370839050802
sS'mutant1284'
p1499
F6.18490022407104e-05
sS'mutant1285'
p1500
F0.0001802010158369634
s.