ccopy_reg
_reconstructor
p0
(cpandas.core.frame
DataFrame
p1
c__builtin__
object
p2
Ntp3
Rp4
(dp5
S'_metadata'
p6
(lp7
sS'_typ'
p8
S'dataframe'
p9
sS'_data'
p10
g0
(cpandas.core.internals
BlockManager
p11
g2
Ntp12
Rp13
((lp14
cpandas.core.indexes.base
_new_Index
p15
(cpandas.core.indexes.base
Index
p16
(dp17
S'data'
p18
cnumpy.core.multiarray
_reconstruct
p19
(cnumpy
ndarray
p20
(I0
tp21
S'b'
p22
tp23
Rp24
(I1
(I2
tp25
cnumpy
dtype
p26
(S'O8'
p27
I0
I1
tp28
Rp29
(I3
S'|'
p30
NNNI-1
I-1
I63
tp31
bI00
(lp32
S'R1'
p33
aS'R2'
p34
atp35
bsS'name'
p36
Nstp37
Rp38
ag15
(g16
(dp39
g18
g19
(g20
(I0
tp40
g22
tp41
Rp42
(I1
(I6
tp43
g29
I00
(lp44
S'P1'
p45
aS'P2'
p46
aS'P3'
p47
aS'P4'
p48
aS'P5'
p49
aS'P6'
p50
atp51
bsg36
Nstp52
Rp53
a(lp54
g19
(g20
(I0
tp55
g22
tp56
Rp57
(I1
(I2
I6
tp58
g26
(S'i8'
p59
I0
I1
tp60
Rp61
(I3
S'<'
p62
NNNI-1
I-1
I0
tp63
bI00
S'WF\xc4\x00\x00\x00\x00\x00PC\xbe\x00\x00\x00\x00\x00`i\xbd\x00\x00\x00\x00\x00\xc4\xe0\xbd\x00\x00\x00\x00\x00he\xbe\x00\x00\x00\x00\x00U\xc1\xb4\x00\x00\x00\x00\x00\xc2\xd8\xbb\x00\x00\x00\x00\x00\xe3<\xc6\x00\x00\x00\x00\x00\x9c\xb0\xb5\x00\x00\x00\x00\x00\xe1_\xb8\x00\x00\x00\x00\x00\\\xfe\xb5\x00\x00\x00\x00\x00\xe2\n\xb8\x00\x00\x00\x00\x00'
p64
tp65
ba(lp66
g15
(g16
(dp67
g18
g19
(g20
(I0
tp68
g22
tp69
Rp70
(I1
(I2
tp71
g29
I00
(lp72
g33
ag34
atp73
bsg36
Nstp74
Rp75
a(dp76
S'0.14.1'
p77
(dp78
S'axes'
p79
g14
sS'blocks'
p80
(lp81
(dp82
S'mgr_locs'
p83
c__builtin__
slice
p84
(I0
I2
I1
tp85
Rp86
sS'values'
p87
g57
sasstp88
bsb.