(dp0
S'mutant987'
p1
F0.0006519883092617502
sS'mutant986'
p2
F0.0005113402955146626
sS'mutant358'
p3
F0.0006532440950987778
sS'mutant359'
p4
F0.0005749929401289974
sS'mutant828'
p5
F0.000359390209234327
sS'mutant829'
p6
F0.0005681646046401601
sS'mutant981'
p7
F0.0003830931669082223
sS'mutant980'
p8
F0.0003264258310123533
sS'mutant824'
p9
F0.000842710783260312
sS'mutant825'
p10
F0.00015493257764327613
sS'mutant826'
p11
F0.0007351056343500123
sS'mutant827'
p12
F0.001159482760650516
sS'mutant820'
p13
F0.0006140792743064805
sS'mutant357'
p14
F0.00026952303527204166
sS'mutant822'
p15
F0.00012785469553236922
sS'mutant355'
p16
F0.00018083316053196972
sS'mutant49'
p17
F0.00012385187817684384
sS'mutant48'
p18
F0.0004596176163520897
sS'mutant41'
p19
F0.0005386536374700123
sS'mutant40'
p20
F0.0001383719019174751
sS'mutant43'
p21
F0.0002891446889755974
sS'mutant42'
p22
F0.0013560132441453301
sS'mutant45'
p23
F0.00014716240277666805
sS'mutant44'
p24
F0.0006230267483953019
sS'mutant47'
p25
F0.0001452787240211267
sS'mutant46'
p26
F0.00030468503870881357
sS'mutant1065'
p27
F0.0010988910940139358
sS'mutant169'
p28
F0.0008817186308229809
sS'mutant168'
p29
F0.0004798671629741592
sS'mutant165'
p30
F0.0022233688244573083
sS'mutant164'
p31
F0.00023090762078344397
sS'mutant167'
p32
F0.0006110967829435401
sS'mutant166'
p33
F0.0006111752695583542
sS'mutant161'
p34
F0.0008721432638156456
sS'mutant160'
p35
F0.000656148099846904
sS'mutant163'
p36
F0.0004420366146337038
sS'mutant162'
p37
F0.0011919762191836042
sS'mutant763'
p38
F0.0008712799110526892
sS'mutant762'
p39
F0.002557721803565898
sS'mutant761'
p40
F0.0008616260574305397
sS'mutant760'
p41
F0.001201708559420568
sS'mutant767'
p42
F0.0002573576099758371
sS'mutant766'
p43
F0.0006768685661578588
sS'mutant765'
p44
F0.00032830950976789466
sS'mutant764'
p45
F0.0005595310770105955
sS'mutant769'
p46
F0.0008939625427339996
sS'mutant768'
p47
F0.0007602213510905637
sS'mutant561'
p48
F0.00034188769413075524
sS'mutant560'
p49
F7.079492656242912e-05
sS'mutant563'
p50
F0.0003223445270420137
sS'mutant562'
p51
F0.0015034895933812552
sS'mutant565'
p52
F0.0006116461892472396
sS'mutant564'
p53
F0.000974725269377835
sS'mutant567'
p54
F0.0005572549651809831
sS'mutant566'
p55
F0.0007070074262465204
sS'mutant569'
p56
F0.0012026503987983385
sS'mutant568'
p57
F0.00012824712860644034
sS'mutant1071'
p58
F0.0007952263812977071
sS'mutant1070'
p59
F0.0017830589153495174
sS'mutant1073'
p60
F0.0005925739418473834
sS'mutant1072'
p61
F0.000619887283802733
sS'mutant1075'
p62
F0.0009272408674152301
sS'mutant1074'
p63
F0.0004377198508189215
sS'mutant1077'
p64
F0.00019637351026518586
sS'mutant1076'
p65
F0.00060050108994362
sS'mutant1079'
p66
F0.0004822217614185859
sS'mutant1078'
p67
F0.00035287582020474646
sS'mutant783'
p68
F0.0009463916014299006
sS'mutant782'
p69
F0.0021352283560209357
sS'mutant785'
p70
F0.0006085067246546707
sS'mutant784'
p71
F0.00039753470403403935
sS'mutant787'
p72
F0.0003966713512710829
sS'mutant786'
p73
F0.00021850673564279674
sS'mutant1479'
p74
F0.0011161581492730647
sS'mutant1478'
p75
F0.001899768511578267
sS'mutant1475'
p76
F0.00020171060007255303
sS'mutant1474'
p77
F0.0004766492117667761
sS'mutant1477'
p78
F0.00022839604910938882
sS'mutant1476'
p79
F0.0004508271154928967
sS'mutant1471'
p80
F0.00038246527398970854
sS'mutant1470'
p81
F0.00019496075119852986
sS'mutant1473'
p82
F0.0002950311850866641
sS'mutant1472'
p83
F0.0008202636114234442
sS'mutant305'
p84
F0.0003386697429233721
sS'mutant304'
p85
F0.0013694344552785623
sS'mutant307'
p86
F0.00032681826408642443
sS'mutant306'
p87
F0.0001414328798952298
sS'mutant301'
p88
F0.0002590058288869358
sS'mutant300'
p89
F0.0004555363123817501
sS'mutant303'
p90
F0.0017960876934086784
sS'mutant302'
p91
F0.0011853048569243952
sS'mutant309'
p92
F0.0007789011654163487
sS'mutant308'
p93
F0.0010625517913549504
sS'mutant1277'
p94
F0.0004502777091891972
sS'mutant1276'
p95
F0.001194016871168774
sS'mutant1275'
p96
F0.0003790118629378827
sS'mutant1274'
p97
F0.0004742946133223494
sS'mutant1273'
p98
F0.0003113564009680225
sS'mutant1272'
p99
F0.00067726099923193
sS'mutant1271'
p100
F8.64922495252737e-05
sS'mutant1270'
p101
F0.0007620265432312907
sS'mutant411'
p102
F0.00036409940612318033
sS'mutant410'
p103
F0.0002173294364205834
sS'mutant413'
p104
F0.0006491627911284382
sS'mutant412'
p105
F0.0001698450344579785
sS'mutant415'
p106
F0.00017094384706537762
sS'mutant414'
p107
F0.0002323988664649142
sS'mutant1279'
p108
F0.001206339269694607
sS'mutant1278'
p109
F0.002559526995706625
sS'mutant1109'
p110
F0.0012768202497977792
sS'mutant1108'
p111
F0.0005866089591215025
sS'mutant1101'
p112
F0.001313002579227136
sS'mutant1100'
p113
F0.0002593982619610069
sS'mutant1103'
p114
F0.0005737371542919699
sS'mutant1102'
p115
F0.0009054215884968761
sS'mutant1105'
p116
F0.0002750955849238515
sS'mutant1104'
p117
F0.0008722217504304598
sS'mutant1107'
p118
F0.0004825357078778428
sS'mutant1106'
p119
F0.00028027570150159024
sS'mutant1299'
p120
F0.0005235057208108672
sS'mutant1298'
p121
F0.0009976433609035881
sS'mutant1291'
p122
F0.0014199798352189218
sS'mutant1290'
p123
F0.00011882873482873357
sS'mutant1293'
p124
F0.0008682189330749345
sS'mutant1292'
p125
F0.0007105393239131606
sS'mutant1295'
p126
F0.0002627731863980185
sS'mutant1294'
p127
F0.001911776963644843
sS'mutant1297'
p128
F0.00031700743723464656
sS'mutant1296'
p129
F0.002638563016824548
sS'mutant38'
p130
F0.00033655060432338807
sS'mutant39'
p131
F0.00031630105770131856
sS'mutant34'
p132
F0.0009187643130152941
sS'mutant35'
p133
F0.0005982249781140075
sS'mutant36'
p134
F0.0004970557316184741
sS'mutant37'
p135
F0.0008548762085565165
sS'mutant30'
p136
F0.00032438517902718355
sS'mutant31'
p137
F0.0009551821022890935
sS'mutant32'
p138
F0.0004094646694858012
sS'mutant33'
p139
F0.0016215334620618466
sS'mutant178'
p140
F0.0024906157478997376
sS'mutant179'
p141
F0.00041362446007095504
sS'mutant176'
p142
F0.0005168343585516583
sS'mutant177'
p143
F0.0005740511007512268
sS'mutant174'
p144
F0.00015705171624326016
sS'mutant175'
p145
F0.001813904154971507
sS'mutant172'
p146
F0.0002692090888127848
sS'mutant173'
p147
F0.0006760837000097166
sS'mutant170'
p148
F0.0002641074588498603
sS'mutant171'
p149
F0.0017687743514533288
sS'mutant1455'
p150
F0.0003176353301531604
sS'mutant1454'
p151
F0.0003914912346933442
sS'mutant899'
p152
F0.001632286128291395
sS'mutant898'
p153
F0.0010783276009326092
sS'mutant774'
p154
F9.834372836222138e-05
sS'mutant775'
p155
F0.0004608734021891173
sS'mutant776'
p156
F0.0005743650472104836
sS'mutant777'
p157
F0.00044462667292257313
sS'mutant770'
p158
F0.0005253109129515943
sS'mutant771'
p159
F0.00024166028701299252
sS'mutant772'
p160
F0.0004815153818852579
sS'mutant773'
p161
F0.0008264640539937679
sS'mutant778'
p162
F8.688468259934482e-05
sS'mutant779'
p163
F0.00022847453572420306
sS'mutant572'
p164
F0.001192604112102118
sS'mutant573'
p165
F0.0004606379423446746
sS'mutant570'
p166
F0.0008829744166600084
sS'mutant571'
p167
F0.0004576554509817341
sS'mutant576'
p168
F0.0011408814329395452
sS'mutant577'
p169
F6.420205091803439e-05
sS'mutant574'
p170
F9.646004960668003e-05
sS'mutant575'
p171
F0.0002381283893463525
sS'mutant578'
p172
F0.0011241637839841155
sS'mutant579'
p173
F0.00036166632106393945
sS'mutant897'
p174
F0.000711402676676117
sS'mutant1044'
p175
F0.0007219198830612229
sS'mutant1045'
p176
F0.0007140712215798006
sS'mutant1046'
p177
F0.0005468162454106914
sS'mutant1047'
p178
F0.0008022116900161729
sS'mutant1040'
p179
F0.001629068177084012
sS'mutant1041'
p180
F0.0002531193327758691
sS'mutant1042'
p181
F0.0003024089268792011
sS'mutant1043'
p182
F0.0003546810123454736
sS'mutant792'
p183
F5.6431876051426316e-05
sS'mutant793'
p184
F0.00015461863118401925
sS'mutant790'
p185
F0.00018781846925043557
sS'mutant791'
p186
F0.0011729824583985623
sS'mutant1048'
p187
F0.0007289051917796887
sS'mutant1049'
p188
F0.00011372710486580907
sS'mutant794'
p189
F5.7216742199568544e-05
sS'mutant795'
p190
F0.0004042060662932483
sS'mutant1459'
p191
F0.0018796759381858258
sS'mutant1458'
p192
F0.0012505272338350145
sS'mutant1440'
p193
F0.0004553008525373074
sS'mutant1441'
p194
F0.0003706922817675751
sS'mutant1442'
p195
F0.0007168967397131126
sS'mutant1443'
p196
F0.00017369087858387544
sS'mutant1444'
p197
F0.00020587039065770685
sS'mutant1445'
p198
F0.0006256168066841712
sS'mutant1446'
p199
F0.00025139262724995615
sS'mutant1447'
p200
F0.00017502515103571723
sS'mutant1448'
p201
F0.001642489388217244
sS'mutant1449'
p202
F0.000222823499457579
sS'mutant710'
p203
F0.0002976212433755335
sS'mutant316'
p204
F0.0003258764247086538
sS'mutant317'
p205
F0.00010548601031031567
sS'mutant314'
p206
F0.0001705514139913065
sS'mutant315'
p207
F0.00016144696667285666
sS'mutant312'
p208
F0.00017573153056904523
sS'mutant313'
p209
F0.0004713121219594089
sS'mutant310'
p210
F0.00048198630157414326
sS'mutant311'
p211
F0.0003086878560643389
sS'mutant716'
p212
F0.00014779029569518185
sS'mutant318'
p213
F0.0003014670875014304
sS'mutant717'
p214
F0.0023241456378787703
sS'mutant714'
p215
F0.0011926825987169322
sS'mutant247'
p216
F0.0002761159109164364
sS'mutant8'
p217
F5.5176090214398745e-05
sS'mutant9'
p218
F0.00044211510124851796
sS'mutant408'
p219
F0.0005181686310035
sS'mutant409'
p220
F0.00060403298761026
sS'mutant958'
p221
F0.0002708573077238835
sS'mutant959'
p222
F0.001394236225559857
sS'mutant402'
p223
F0.001230984066746273
sS'mutant403'
p224
F0.0006030911482324893
sS'mutant400'
p225
F0.000798365845890276
sS'mutant3'
p226
F0.0011530468582357496
sS'mutant4'
p227
F0.0006388025579729608
sS'mutant5'
p228
F0.00021685851673169807
sS'mutant6'
p229
F0.0007852585812163008
sS'mutant7'
p230
F0.0009899516726517943
sS'mutant1138'
p231
F0.0001448862909470556
sS'mutant1139'
p232
F0.0009432521368373316
sS'mutant1134'
p233
F0.0016743549538318185
sS'mutant1135'
p234
F0.0009171160941041954
sS'mutant1136'
p235
F0.002081386538258379
sS'mutant1137'
p236
F0.00154948274966239
sS'mutant1130'
p237
F0.0002933044795607512
sS'mutant1131'
p238
F0.00021128596707988822
sS'mutant1132'
p239
F0.0004903058827444509
sS'mutant1133'
p240
F0.00016992352107279274
sS'mutant939'
p241
F0.001771992302660712
sS'mutant936'
p242
F0.00034981484222699176
sS'mutant937'
p243
F0.0007532360423720978
sS'mutant29'
p244
F0.0003119842938865363
sS'mutant28'
p245
F0.0005384966642403838
sS'mutant27'
p246
F0.00011341315840655219
sS'mutant26'
p247
F0.0002170154899613265
sS'mutant25'
p248
F0.00035389614619733134
sS'mutant24'
p249
F0.0007968746002088058
sS'mutant23'
p250
F0.001089080267162158
sS'mutant22'
p251
F0.0008453008415491814
sS'mutant21'
p252
F0.00016348761865802645
sS'mutant20'
p253
F0.001044342896718051
sS'mutant1350'
p254
F0.00070049303721694
sS'mutant1351'
p255
F0.000674435481098618
sS'mutant1352'
p256
F0.0010693801268437878
sS'mutant1353'
p257
F0.0006416280761062727
sS'mutant1354'
p258
F0.00024346547915371966
sS'mutant1355'
p259
F0.00017478969119127455
sS'mutant1356'
p260
F0.0009729985638519222
sS'mutant1357'
p261
F0.0005447755934255217
sS'mutant143'
p262
F0.0007591225384831645
sS'mutant142'
p263
F0.0016085046840026854
sS'mutant141'
p264
F8.790500859192972e-05
sS'mutant140'
p265
F0.0023030327384937445
sS'mutant147'
p266
F0.0005190319837664565
sS'mutant146'
p267
F0.0005242905869590095
sS'mutant145'
p268
F0.0004254759389079027
sS'mutant144'
p269
F0.00022196014669462256
sS'mutant149'
p270
F0.0002285530223390173
sS'mutant148'
p271
F0.000731809196527815
sS'mutant1051'
p272
F0.00014716240277666805
sS'mutant434'
p273
F0.000699080278150284
sS'mutant1057'
p274
F0.0007110102436020459
sS'mutant1056'
p275
F0.0006158844664472076
sS'mutant451'
p276
F0.00041904003649313645
sS'mutant1055'
p277
F0.0001685107620061367
sS'mutant1054'
p278
F0.0026592049965206885
sS'mutant450'
p279
F0.0009922277844814067
sS'mutant547'
p280
F0.0002973857835310908
sS'mutant546'
p281
F0.0002429945594648343
sS'mutant545'
p282
F0.00011749446237689178
sS'mutant544'
p283
F0.0005596095636254098
sS'mutant543'
p284
F0.00022580599082051947
sS'mutant542'
p285
F9.222177240671199e-05
sS'mutant541'
p286
F0.0002973857835310908
sS'mutant540'
p287
F0.00030327227964215757
sS'mutant549'
p288
F0.0004399174760337197
sS'mutant548'
p289
F0.00019527469765778674
sS'mutant1457'
p290
F0.0011935459514798887
sS'mutant1456'
p291
F0.0005347293067293011
sS'mutant329'
p292
F0.0004555363123817501
sS'mutant328'
p293
F0.00016639162340615268
sS'mutant1453'
p294
F0.001146846415665426
sS'mutant1452'
p295
F0.0003212457144346146
sS'mutant1451'
p296
F0.001079583386769637
sS'mutant1450'
p297
F0.0003913342614637157
sS'mutant323'
p298
F0.0013764982506118423
sS'mutant322'
p299
F0.001818456378630732
sS'mutant321'
p300
F9.018112042154219e-05
sS'mutant320'
p301
F0.00021097202062063134
sS'mutant327'
p302
F0.0005333165476626451
sS'mutant326'
p303
F0.00098634128837034
sS'mutant325'
p304
F0.00011890722144354779
sS'mutant324'
p305
F0.00012785469553236922
sS'mutant1059'
p306
F0.0007127369491279588
sS'mutant1058'
p307
F0.0004876373378407673
sS'mutant439'
p308
F0.0009319500643040835
sS'mutant438'
p309
F0.001709752417113033
sS'mutant437'
p310
F0.0002502153280277428
sS'mutant436'
p311
F0.0007530005825276551
sS'mutant435'
p312
F0.00011364861825099485
sS'mutant1050'
p313
F0.0005875507984992732
sS'mutant433'
p314
F0.0001729060124357332
sS'mutant432'
p315
F0.0004972127048481025
sS'mutant431'
p316
F0.000807156346749469
sS'mutant430'
p317
F0.0001599557209913864
sS'mutant1123'
p318
F0.00028066813457566136
sS'mutant1122'
p319
F0.0006327590886322656
sS'mutant1121'
p320
F0.0008901951852229168
sS'mutant1120'
p321
F0.0007239605350463927
sS'mutant1127'
p322
F0.0008225397232530567
sS'mutant1126'
p323
F0.0016856570263650667
sS'mutant1125'
p324
F0.0014413281944483905
sS'mutant1124'
p325
F0.0006075648852769
sS'mutant1129'
p326
F0.0011276171950359414
sS'mutant1128'
p327
F0.00010438719770291655
sS'mutant459'
p328
F0.000525546372796037
sS'mutant458'
p329
F0.0018394907914009437
sS'mutant645'
p330
F0.0009624028708520021
sS'mutant1053'
p331
F0.0010621593582808794
sS'mutant646'
p332
F0.000755041234512825
sS'mutant1052'
p333
F0.0007224692893649224
sS'mutant640'
p334
F0.000605131800217659
sS'mutant12'
p335
F0.00178886692484577
sS'mutant13'
p336
F0.0004801026228186019
sS'mutant10'
p337
F0.00032077479474572926
sS'mutant11'
p338
F0.00016592070371726736
sS'mutant16'
p339
F0.0005372408784033563
sS'mutant17'
p340
F0.00041260413407837016
sS'mutant14'
p341
F0.00026128194071654826
sS'mutant15'
p342
F0.00012495069078424296
sS'mutant18'
p343
F0.00028616219761265694
sS'mutant19'
p344
F0.0004220225278560769
sS'mutant971'
p345
F0.00017094384706537762
sS'mutant789'
p346
F9.748037559926493e-05
sS'mutant788'
p347
F0.0008288186524381946
sS'mutant154'
p348
F0.00025209900678328415
sS'mutant155'
p349
F0.00019598107719111474
sS'mutant156'
p350
F0.0005677721715660889
sS'mutant157'
p351
F0.00038795933702670413
sS'mutant150'
p352
F0.0002993479489014464
sS'mutant151'
p353
F0.0004294787562634281
sS'mutant152'
p354
F5.894344772548145e-05
sS'mutant153'
p355
F0.00023914871533893737
sS'mutant158'
p356
F0.0002436224523833481
sS'mutant159'
p357
F0.0007408351572314506
sS'mutant781'
p358
F0.0007214489633723375
sS'mutant780'
p359
F0.0005546649068921137
sS'mutant558'
p360
F0.00036237270059726745
sS'mutant559'
p361
F0.0006506540368099084
sS'mutant550'
p362
F0.00134745820313058
sS'mutant551'
p363
F0.0004179412238857373
sS'mutant552'
p364
F0.00027862748259049154
sS'mutant553'
p365
F0.0015327651007069603
sS'mutant554'
p366
F0.0004334030870041392
sS'mutant555'
p367
F0.000635035200461878
sS'mutant556'
p368
F0.00018671965664303645
sS'mutant557'
p369
F0.00017722277625051546
sS'mutant338'
p370
F0.00146715029072227
sS'mutant339'
p371
F0.0021438618836505004
sS'mutant888'
p372
F0.00046848660382609687
sS'mutant889'
p373
F0.0006645461676320259
sS'mutant334'
p374
F0.0007245884279649064
sS'mutant335'
p375
F0.0005697343369364445
sS'mutant336'
p376
F9.732340236963647e-05
sS'mutant337'
p377
F0.000434737359455981
sS'mutant330'
p378
F0.00010556449692512989
sS'mutant331'
p379
F0.0011036002909027892
sS'mutant332'
p380
F0.0003509921414492051
sS'mutant333'
p381
F0.0006595230242839156
sS'mutant1332'
p382
F0.0004074240175006314
sS'mutant1333'
p383
F0.00045263230763362383
sS'mutant1330'
p384
F0.001480885448314759
sS'mutant1331'
p385
F0.0013036626720642436
sS'mutant1336'
p386
F0.00029605151107924905
sS'mutant1337'
p387
F0.0002944817787829646
sS'mutant1334'
p388
F0.0002057134174280784
sS'mutant1335'
p389
F0.0003262688577827249
sS'mutant1484'
p390
F0.0004622861612557733
sS'mutant1485'
p391
F0.0005778969448771238
sS'mutant1338'
p392
F0.00019982692131701168
sS'mutant1339'
p393
F0.0005827631149956055
sS'mutant1480'
p394
F6.412356430322017e-05
sS'mutant1481'
p395
F0.00021010866785767487
sS'mutant1482'
p396
F0.0009208049650004639
sS'mutant1483'
p397
F0.00020218151976143835
sS'mutant420'
p398
F0.00013099416012493813
sS'mutant421'
p399
F0.0008476554399936081
sS'mutant422'
p400
F0.00026214529347950473
sS'mutant423'
p401
F0.0007019842828984102
sS'mutant424'
p402
F0.000900084498689509
sS'mutant425'
p403
F0.0009365022879633084
sS'mutant426'
p404
F0.0002564942572128807
sS'mutant427'
p405
F0.00034534110518258106
sS'mutant428'
p406
F0.001705435653298251
sS'mutant1027'
p407
F0.00105250550465873
sS'mutant1024'
p408
F0.0021840470304353827
sS'mutant1025'
p409
F0.0002859267377682143
sS'mutant1022'
p410
F0.0008489897124454498
sS'mutant1023'
p411
F0.0010080035940590655
sS'mutant1020'
p412
F0.0011723545654800484
sS'mutant1021'
p413
F0.001580877395588079
sS'mutant1156'
p414
F0.000437562877589293
sS'mutant1157'
p415
F0.00020241697960588103
sS'mutant1154'
p416
F0.00035052122176031976
sS'mutant1155'
p417
F0.0014538860528186663
sS'mutant1152'
p418
F0.0012768202497977792
sS'mutant1153'
p419
F0.001077464248169653
sS'mutant1150'
p420
F0.0009828093907037
sS'mutant1151'
p421
F0.0003188911159901879
sS'mutant1158'
p422
F0.001396355364159841
sS'mutant1159'
p423
F0.0014928154137665208
sS'mutant240'
p424
F0.00026143891394617673
sS'mutant241'
p425
F0.0015064720847441956
sS'mutant887'
p426
F0.00010493660400661611
sS'mutant419'
p427
F0.00020108270715403923
sS'mutant529'
p428
F0.0019858683280294695
sS'mutant528'
p429
F0.00024997986818330015
sS'mutant418'
p430
F0.00017235660613203364
sS'mutant525'
p431
F0.00029047896142743923
sS'mutant524'
p432
F0.0005077299112332084
sS'mutant527'
p433
F0.002071261764947344
sS'mutant526'
p434
F0.0003283879963827089
sS'mutant521'
p435
F0.0003850553322785779
sS'mutant520'
p436
F0.000702612175816924
sS'mutant523'
p437
F0.0012884362687902843
sS'mutant522'
p438
F0.0001185932749842909
sS'mutant948'
p439
F0.0008627248700379389
sS'mutant943'
p440
F0.0003565646911010149
sS'mutant942'
p441
F0.0002475467831240592
sS'mutant941'
p442
F0.0002750170983090373
sS'mutant940'
p443
F0.001064121523651235
sS'mutant947'
p444
F0.0005953209733658813
sS'mutant946'
p445
F0.0001965304834948143
sS'mutant631'
p446
F0.000525546372796037
sS'mutant630'
p447
F0.001160974006331986
sS'mutant633'
p448
F0.0003133185663383781
sS'mutant632'
p449
F0.0006551277738543191
sS'mutant635'
p450
F0.0003758723983453138
sS'mutant634'
p451
F0.0017313362361869443
sS'mutant189'
p452
F0.0011360152628210633
sS'mutant188'
p453
F0.0007694042850238278
sS'mutant639'
p454
F0.0003792473227823254
sS'mutant638'
p455
F0.00012699134276941275
sS'mutant185'
p456
F0.0011843630175466247
sS'mutant416'
p457
F0.0007305534106907874
sS'mutant183'
p458
F0.0017256851999203203
sS'mutant182'
p459
F0.0009280257335633723
sS'mutant181'
p460
F0.0002982491362940473
sS'mutant180'
p461
F0.00010360233155477432
sS'mutant1493'
p462
F9.198631256226932e-05
sS'mutant858'
p463
F0.0005690279574031165
sS'mutant1323'
p464
F0.00010124773311034763
sS'mutant1322'
p465
F0.00017282752582091897
sS'mutant1325'
p466
F0.0003119842938865363
sS'mutant1324'
p467
F7.00885470291011e-05
sS'mutant1327'
p468
F0.0004461964052188576
sS'mutant1494'
p469
F0.00040554033874509005
sS'mutant851'
p470
F0.00026434291869430296
sS'mutant1328'
p471
F0.00037547996527124267
sS'mutant853'
p472
F0.0018084100919345113
sS'mutant1498'
p473
F0.00022321593253165012
sS'mutant855'
p474
F0.00013342724518417904
sS'mutant854'
p475
F0.00015799355562103084
sS'mutant857'
p476
F0.0013145723115234205
sS'mutant856'
p477
F0.0003228939333457133
sS'mutant455'
p478
F0.0008513443108898765
sS'mutant454'
p479
F0.00041542965221168216
sS'mutant457'
p480
F0.0008508733912009912
sS'mutant456'
p481
F0.002007452147103381
sS'mutant1039'
p482
F0.0012272167092351903
sS'mutant1038'
p483
F0.00012259609233981628
sS'mutant453'
p484
F0.0002466834303611028
sS'mutant452'
p485
F0.00027776412982753507
sS'mutant1035'
p486
F0.0013423565731676553
sS'mutant1034'
p487
F0.0006406077501136878
sS'mutant1037'
p488
F0.0006687059582171797
sS'mutant1036'
p489
F0.00034848056977515
sS'mutant1031'
p490
F0.0018825014563191378
sS'mutant1030'
p491
F0.0010340611501773876
sS'mutant1033'
p492
F0.0004973696780777309
sS'mutant1032'
p493
F0.00019762929610221344
sS'mutant1145'
p494
F0.001278546955323692
sS'mutant1144'
p495
F0.0006439041879358852
sS'mutant1147'
p496
F0.0006409216965729447
sS'mutant1146'
p497
F0.0002522559800129126
sS'mutant1141'
p498
F0.0013319178533973638
sS'mutant1140'
p499
F0.0005239766404997525
sS'mutant1143'
p500
F0.0005960273528992093
sS'mutant1142'
p501
F0.00012495069078424296
sS'mutant1149'
p502
F6.961762734021577e-05
sS'mutant1148'
p503
F0.0006698832574393931
sS'mutant953'
p504
F0.0005765626724252819
sS'mutant213'
p505
F0.000447766137515142
sS'mutant212'
p506
F0.000563926327440192
sS'mutant747'
p507
F0.0008892533458451463
sS'mutant746'
p508
F0.000995131789229533
sS'mutant741'
p509
F0.0002737613124720097
sS'mutant740'
p510
F0.0008603702715935122
sS'mutant743'
p511
F0.0008508733912009912
sS'mutant742'
p512
F0.00033443146572340407
sS'mutant190'
p513
F0.0004054618521302759
sS'mutant191'
p514
F0.0007321231429870718
sS'mutant620'
p515
F0.0004209237152486778
sS'mutant621'
p516
F0.002146530428554184
sS'mutant194'
p517
F0.0016933487146168606
sS'mutant195'
p518
F0.0008893318324599605
sS'mutant196'
p519
F0.000604425420684331
sS'mutant197'
p520
F0.0008644515755638518
sS'mutant895'
p521
F0.0008345481753196328
sS'mutant538'
p522
F0.0002248641514427488
sS'mutant539'
p523
F0.0009244153492819181
sS'mutant536'
p524
F0.00017235660613203364
sS'mutant537'
p525
F0.0003690440628564764
sS'mutant534'
p526
F0.00013609579008786262
sS'mutant535'
p527
F0.00017761520932458658
sS'mutant532'
p528
F0.0006618776227283423
sS'mutant533'
p529
F0.0012103420870501324
sS'mutant530'
p530
F0.0009556530219779789
sS'mutant531'
p531
F0.002415504057522526
sS'mutant894'
p532
F0.00013436908456194971
sS'mutant964'
p533
F0.00046668141168536975
sS'mutant1316'
p534
F0.0005478365714032763
sS'mutant1317'
p535
F0.0001646649178802398
sS'mutant963'
p536
F0.0012222720525018943
sS'mutant962'
p537
F8.539343691787459e-05
sS'mutant622'
p538
F0.00037241898729348797
sS'mutant623'
p539
F0.0009969369813702601
sS'mutant192'
p540
F0.00034659689101960864
sS'mutant193'
p541
F0.0012980116357976194
sS'mutant626'
p542
F0.000584018900832633
sS'mutant627'
p543
F0.0002475467831240592
sS'mutant624'
p544
F0.0008037814223124574
sS'mutant625'
p545
F0.00011945662774724736
sS'mutant198'
p546
F0.0007504105242387858
sS'mutant199'
p547
F0.0005514469556847306
sS'mutant628'
p548
F0.00047955321651490233
sS'mutant629'
p549
F0.00040444152613769094
sS'mutant896'
p550
F0.0005640833006698205
sS'mutant1314'
p551
F0.0003954155654340553
sS'mutant1315'
p552
F0.0004926604811888776
sS'mutant848'
p553
F0.00030248741349401533
sS'mutant849'
p554
F0.0003642563793528088
sS'mutant1310'
p555
F0.00030052524812365975
sS'mutant1311'
p556
F0.0004978405977666163
sS'mutant1312'
p557
F0.0018771643665117708
sS'mutant1313'
p558
F0.0004647977329298284
sS'mutant842'
p559
F0.00112926541394704
sS'mutant846'
p560
F0.0005518393887588017
sS'mutant840'
p561
F9.049506688079908e-05
sS'mutant841'
p562
F7.479774391795448e-05
sS'mutant1318'
p563
F0.00010791909536955658
sS'mutant1319'
p564
F0.00011388407809543753
sS'mutant844'
p565
F0.0005724813684549423
sS'mutant845'
p566
F0.000546659272181063
sS'mutant891'
p567
F0.0019116199904152145
sS'mutant998'
p568
F0.0007481344124091733
sS'mutant999'
p569
F0.0003466753776344229
sS'mutant990'
p570
F0.00025822096273879356
sS'mutant991'
p571
F0.0002053209843540073
sS'mutant992'
p572
F0.0009407405651632764
sS'mutant993'
p573
F0.00017149325336907718
sS'mutant994'
p574
F0.0004701348227371956
sS'mutant995'
p575
F0.0013625276331749108
sS'mutant996'
p576
F0.00027077882110906925
sS'mutant997'
p577
F0.0007903602111792253
sS'mutant1000'
p578
F0.000447059757981814
sS'mutant1001'
p579
F0.00038050310861935296
sS'mutant444'
p580
F0.00128278523252366
sS'mutant1003'
p581
F0.0004908552890481504
sS'mutant1004'
p582
F0.0009149184688893972
sS'mutant1005'
p583
F0.0017134412880093015
sS'mutant440'
p584
F0.002381362380078339
sS'mutant1007'
p585
F0.001008160567288694
sS'mutant1008'
p586
F0.00046864357705572534
sS'mutant1009'
p587
F0.0007050452608761649
sS'mutant890'
p588
F0.0011886797813614068
sS'mutant448'
p589
F0.00019496075119852986
sS'mutant449'
p590
F8.743408890304438e-05
sS'mutant893'
p591
F9.339907162892533e-05
sS'mutant892'
p592
F0.000822304263408614
sS'mutant1178'
p593
F0.00016788286908762292
sS'mutant1179'
p594
F0.0015098470091812072
sS'mutant1170'
p595
F0.0021030488439471046
sS'mutant1171'
p596
F0.0008213624240308434
sS'mutant1172'
p597
F0.0003487945162344069
sS'mutant1173'
p598
F0.00035107062806401934
sS'mutant1174'
p599
F0.0007659508739720019
sS'mutant1175'
p600
F0.0004547514462336079
sS'mutant1176'
p601
F0.00033348962634563336
sS'mutant1177'
p602
F0.00041362446007095504
sS'mutant1410'
p603
F0.00045302474070769495
sS'mutant446'
p604
F0.0007443670548980906
sS'mutant447'
p605
F0.0002269048034279186
sS'mutant1002'
p606
F0.0012952646042791217
sS'mutant445'
p607
F0.0005900623701733282
sS'mutant442'
p608
F0.0005602374565439235
sS'mutant443'
p609
F0.0004841839267889415
sS'mutant1006'
p610
F0.000984222149770356
sS'mutant441'
p611
F0.0009113865712227571
sS'mutant293'
p612
F0.0002303582144797444
sS'mutant292'
p613
F0.0012826282592940318
sS'mutant291'
p614
F0.0011447272770654419
sS'mutant290'
p615
F0.0005256248594108512
sS'mutant297'
p616
F0.00038890117640447483
sS'mutant296'
p617
F0.0007199577176908673
sS'mutant295'
p618
F0.0004293217830337996
sS'mutant294'
p619
F0.00026355805254616073
sS'mutant299'
p620
F0.0007588870786387219
sS'mutant298'
p621
F0.000545952892647735
sS'mutant503'
p622
F0.0011498289070283666
sS'mutant502'
p623
F0.0010338256903329448
sS'mutant501'
p624
F0.0009223746972967483
sS'mutant500'
p625
F0.00045883275020394747
sS'mutant507'
p626
F0.0003572710706343429
sS'mutant506'
p627
F0.0004606379423446746
sS'mutant505'
p628
F0.001557959304062326
sS'mutant504'
p629
F0.0006636043282542552
sS'mutant509'
p630
F0.00011757294899170601
sS'mutant508'
p631
F0.000501607955277699
sS'mutant356'
p632
F0.0012181122619167404
sS'mutant617'
p633
F0.0008730851031934163
sS'mutant616'
p634
F0.0012966773633457777
sS'mutant615'
p635
F0.001126439895813728
sS'mutant614'
p636
F0.00029872005598293263
sS'mutant613'
p637
F0.0005180116577738716
sS'mutant612'
p638
F0.00011145099303619662
sS'mutant611'
p639
F0.0006279714051285979
sS'mutant610'
p640
F0.00034322196658259706
sS'mutant619'
p641
F0.0016540269205949348
sS'mutant618'
p642
F0.00017102233368019185
sS'mutant879'
p643
F0.0013219500533159575
sS'mutant1430'
p644
F0.00023593076413155423
sS'mutant877'
p645
F0.0003925900473007433
sS'mutant876'
p646
F0.0006413141296470159
sS'mutant875'
p647
F0.0003892151228637317
sS'mutant874'
p648
F0.0009354819619707235
sS'mutant873'
p649
F0.00013201448611752304
sS'mutant872'
p650
F0.00021026564108730334
sS'mutant871'
p651
F0.00017149325336907718
sS'mutant870'
p652
F0.0005594525903957813
sS'mutant479'
p653
F0.0007113241900613028
sS'mutant478'
p654
F0.0002982491362940473
sS'mutant473'
p655
F0.000317164410464275
sS'mutant472'
p656
F0.000199591461472569
sS'mutant471'
p657
F0.0013126886327678791
sS'mutant470'
p658
F0.00018334473220602484
sS'mutant477'
p659
F0.0006551277738543191
sS'mutant476'
p660
F0.0003667679510268639
sS'mutant475'
p661
F0.0008431817029491974
sS'mutant474'
p662
F0.00033953309568632853
sS'mutant279'
p663
F0.001198883041287256
sS'mutant278'
p664
F0.0004876373378407673
sS'mutant1015'
p665
F0.0004199818758709071
sS'mutant1014'
p666
F0.00019692291656888542
sS'mutant1013'
p667
F0.001036651208466257
sS'mutant1012'
p668
F0.00022054738762796654
sS'mutant1011'
p669
F0.0019478808064593855
sS'mutant1010'
p670
F0.0002398550948722654
sS'mutant271'
p671
F0.000520601716062741
sS'mutant270'
p672
F0.0003447916988788815
sS'mutant273'
p673
F0.00029157777403483834
sS'mutant272'
p674
F0.0002574360965906513
sS'mutant275'
p675
F0.00010101227326590495
sS'mutant274'
p676
F0.0003181847364568599
sS'mutant277'
p677
F0.00043787682404854996
sS'mutant276'
p678
F0.00034942240915292064
sS'mutant121'
p679
F0.0010706359126808156
sS'mutant1432'
p680
F0.0006211430696397605
sS'mutant120'
p681
F0.0010114570051108914
sS'mutant123'
p682
F0.0003803461353897245
sS'mutant650'
p683
F0.0005338659539663446
sS'mutant125'
p684
F0.0009722136977037799
sS'mutant124'
p685
F0.00016592070371726736
sS'mutant127'
p686
F0.0004182551703449942
sS'mutant126'
p687
F0.00017243509274684785
sS'mutant1309'
p688
F0.00017847856208754302
sS'mutant1308'
p689
F0.00045569328561137853
sS'mutant128'
p690
F0.0002703079014201839
sS'mutant1303'
p691
F0.002173686797279905
sS'mutant1302'
p692
F0.00031010061513099497
sS'mutant1301'
p693
F0.0009383859667188498
sS'mutant1300'
p694
F0.0005416361288329527
sS'mutant1307'
p695
F0.00011364861825099485
sS'mutant1306'
p696
F0.0008441235423269681
sS'mutant1305'
p697
F0.000944429436059545
sS'mutant1304'
p698
F0.0002658341643757732
sS'mutant1169'
p699
F0.0008995350923858094
sS'mutant1168'
p700
F0.00013672368300637642
sS'mutant1167'
p701
F0.0014100905217523298
sS'mutant1166'
p702
F0.002315433623634392
sS'mutant1165'
p703
F0.001701275862713097
sS'mutant1164'
p704
F0.0004982330308406874
sS'mutant1163'
p705
F0.0006432762950173715
sS'mutant1162'
p706
F0.00026591265099058743
sS'mutant1161'
p707
F0.0015628254741808078
sS'mutant1160'
p708
F0.0003109639678939514
sS'mutant349'
p709
F0.0016348761865802644
sS'mutant1438'
p710
F0.0011269108155026134
sS'mutant977'
p711
F0.00101663712168863
sS'mutant417'
p712
F0.0002032803323688375
sS'mutant1492'
p713
F0.0005178546845442431
sS'mutant970'
p714
F0.00011820084191021979
sS'mutant284'
p715
F0.0005060032057072955
sS'mutant285'
p716
F0.0003174783569235319
sS'mutant286'
p717
F0.00016733346278392336
sS'mutant287'
p718
F0.00032273696011608484
sS'mutant280'
p719
F0.00020822498910213352
sS'mutant281'
p720
F0.0001598772343765722
sS'mutant282'
p721
F0.00039729924418959665
sS'mutant283'
p722
F0.00043528676575968055
sS'mutant341'
p723
F0.0005669873054179467
sS'mutant288'
p724
F0.0007776453795793212
sS'mutant289'
p725
F0.000152421005969221
sS'mutant514'
p726
F0.000435443738989309
sS'mutant515'
p727
F0.0003133185663383781
sS'mutant516'
p728
F0.0008769309473193132
sS'mutant517'
p729
F0.00030303681979771486
sS'mutant510'
p730
F0.0002560233375239953
sS'mutant511'
p731
F0.0003810525149230525
sS'mutant512'
p732
F0.001593592227187983
sS'mutant513'
p733
F0.0006662728731579387
sS'mutant518'
p734
F0.0007957757876014067
sS'mutant519'
p735
F0.00027768564321272083
sS'mutant886'
p736
F0.00029691486384220546
sS'mutant340'
p737
F0.0015825256144991777
sS'mutant884'
p738
F0.001243306465272106
sS'mutant885'
p739
F0.0005311974090626611
sS'mutant882'
p740
F0.0022276855882720904
sS'mutant883'
p741
F0.00015359830519143434
sS'mutant880'
p742
F0.0003400040153752139
sS'mutant881'
p743
F0.00012455825771017184
sS'mutant608'
p744
F0.0006570114526098605
sS'mutant609'
p745
F0.001708967550964891
sS'mutant726'
p746
F0.00045145500841141053
sS'mutant600'
p747
F0.00016152545328767086
sS'mutant601'
p748
F0.00016019118083582907
sS'mutant602'
p749
F0.0002108935340058171
sS'mutant603'
p750
F0.0003386697429233721
sS'mutant604'
p751
F8.876836135488617e-05
sS'mutant605'
p752
F0.0006034050946917462
sS'mutant606'
p753
F0.0009478828471113708
sS'mutant607'
p754
F0.00010360233155477432
sS'mutant236'
p755
F0.0005201307963738556
sS'mutant985'
p756
F0.0023710806335376757
sS'mutant723'
p757
F0.0003221090671975711
sS'mutant722'
p758
F0.0002982491362940473
sS'mutant860'
p759
F0.0005958703796695808
sS'mutant861'
p760
F0.00033152746097527783
sS'mutant862'
p761
F0.002404515931448535
sS'mutant863'
p762
F0.0004386616901966922
sS'mutant864'
p763
F7.34634714661127e-05
sS'mutant865'
p764
F0.00045467295961879365
sS'mutant866'
p765
F0.00021481786474652825
sS'mutant867'
p766
F0.0006810283567430127
sS'mutant868'
p767
F0.0009099738121561011
sS'mutant869'
p768
F0.0002084604489465762
sS'mutant720'
p769
F0.0006571684258394889
sS'mutant984'
p770
F0.0009127993302894131
sS'mutant468'
p771
F0.002116940974769222
sS'mutant469'
p772
F0.0004938377804110909
sS'mutant464'
p773
F0.001152105018857979
sS'mutant465'
p774
F0.001594926499639825
sS'mutant466'
p775
F0.0014060092177819903
sS'mutant467'
p776
F0.0008881545332377471
sS'mutant460'
p777
F6.718454228097486e-05
sS'mutant461'
p778
F0.0002450352114500041
sS'mutant462'
p779
F0.000543519807588494
sS'mutant463'
p780
F0.0007453088942758613
sS'mutant268'
p781
F0.0014151136651004402
sS'mutant269'
p782
F0.00021544575766504204
sS'mutant262'
p783
F0.00021654457027244116
sS'mutant263'
p784
F0.0019836707028146714
sS'mutant260'
p785
F0.00019480377796890142
sS'mutant261'
p786
F0.0018726121428525458
sS'mutant266'
p787
F0.00032956529560492225
sS'mutant267'
p788
F0.00024958743510922904
sS'mutant264'
p789
F0.00015108673351737923
sS'mutant265'
p790
F0.00029495269847184993
sS'mutant1202'
p791
F0.0019679733798518267
sS'mutant1203'
p792
F0.0003669249242564924
sS'mutant1200'
p793
F0.0008278768130604239
sS'mutant1201'
p794
F0.0009443509494447308
sS'mutant1206'
p795
F0.0008359609343862888
sS'mutant1207'
p796
F7.432682422906914e-05
sS'mutant1204'
p797
F7.260011870315625e-05
sS'mutant1205'
p798
F0.0002501368414129286
sS'mutant1208'
p799
F0.00032760313023456666
sS'mutant1209'
p800
F0.0003269752373160529
sS'mutant982'
p801
F0.00022070436085759498
sS'mutant1488'
p802
F0.0016889534641872641
sS'mutant1489'
p803
F0.0008763815410156137
sS'mutant1378'
p804
F0.00020123968038366768
sS'mutant1379'
p805
F0.0004400744492633482
sS'mutant1376'
p806
F0.001400279694900552
sS'mutant1377'
p807
F0.00048167235511488633
sS'mutant1374'
p808
F0.0012007667200427971
sS'mutant1375'
p809
F0.0005580398313291253
sS'mutant1372'
p810
F0.0002633225927017181
sS'mutant1373'
p811
F0.0013669228836045073
sS'mutant1370'
p812
F0.00015972026114694375
sS'mutant1371'
p813
F0.00015697322962844593
sS'mutant1487'
p814
F0.00045561479899656435
sS'mutant1192'
p815
F0.0003216381475086857
sS'mutant1193'
p816
F0.00020186757330218147
sS'mutant1190'
p817
F0.0002524129532425411
sS'mutant1191'
p818
F0.0002214892270057372
sS'mutant1196'
p819
F0.0020323324039994897
sS'mutant1197'
p820
F0.0008700241252156616
sS'mutant1194'
p821
F0.00023969812164263693
sS'mutant1195'
p822
F0.0010047071562368681
sS'mutant1198'
p823
F0.0002564942572128807
sS'mutant1199'
p824
F0.0006293841641952539
sS'mutant989'
p825
F8.476554399936081e-05
sS'mutant1431'
p826
F0.00014127590666560135
sS'mutant1346'
p827
F0.0023693539280117627
sS'mutant243'
p828
F0.00029840610952367575
sS'mutant1433'
p829
F0.0004452545658410869
sS'mutant838'
p830
F0.0006667437928468241
sS'mutant1435'
p831
F0.0007507244706980426
sS'mutant988'
p832
F0.000737460232794439
sS'mutant1434'
p833
F0.0009390923462521778
sS'mutant1028'
p834
F0.0003563292312565723
sS'mutant1029'
p835
F0.00036213724075282475
sS'mutant1026'
p836
F0.0005094566167591212
sS'mutant429'
p837
F0.0013871724302265767
sS'mutant831'
p838
F0.002179573293390972
sS'mutant830'
p839
F0.000174946664420903
sS'mutant837'
p840
F0.0012305131470573877
sS'mutant836'
p841
F0.0012681867221682147
sS'mutant1349'
p842
F0.00029942643551626063
sS'mutant834'
p843
F0.0003493439225381064
sS'mutant389'
p844
F0.0007756047275941513
sS'mutant388'
p845
F0.00030162406073105886
sS'mutant385'
p846
F0.0005291567570774912
sS'mutant384'
p847
F0.0008932561632006716
sS'mutant387'
p848
F0.0012591607614645792
sS'mutant386'
p849
F0.0013837190191747508
sS'mutant381'
p850
F0.0003987904898710669
sS'mutant380'
p851
F0.0002303582144797444
sS'mutant383'
p852
F8.429462431047547e-05
sS'mutant382'
p853
F0.0019693076523036685
sS'mutant679'
p854
F0.00018711208971710754
sS'mutant678'
p855
F0.0011448057636802562
sS'mutant727'
p856
F0.0002768222904497644
sS'mutant675'
p857
F0.00016074058713952863
sS'mutant674'
p858
F0.0003796397558563965
sS'mutant677'
p859
F0.0004171563577375951
sS'mutant676'
p860
F0.0014306540148336562
sS'mutant671'
p861
F0.000378070023560112
sS'mutant670'
p862
F0.0021886777407094217
sS'mutant673'
p863
F0.00019864962209479832
sS'mutant672'
p864
F0.0002327128129241711
sS'mutant815'
p865
F0.0002812175408793609
sS'mutant814'
p866
F0.0003912557748489015
sS'mutant817'
p867
F7.495471714758294e-05
sS'mutant816'
p868
F0.0006270295657508272
sS'mutant811'
p869
F0.00016442945803579712
sS'mutant810'
p870
F6.388810445877749e-05
sS'mutant813'
p871
F0.00028545581807932894
sS'mutant812'
p872
F0.0002406399610204076
sS'mutant819'
p873
F0.00037469509912310044
sS'mutant818'
p874
F0.0005111048356702199
sS'mutant491'
p875
F0.0003370215240122734
sS'mutant490'
p876
F0.001131384552547024
sS'mutant493'
p877
F0.00014104044682115868
sS'mutant725'
p878
F0.00043065605548564144
sS'mutant495'
p879
F0.000984928529303684
sS'mutant494'
p880
F0.00023663714366488225
sS'mutant497'
p881
F0.00034604748471590905
sS'mutant496'
p882
F0.0003018595205755015
sS'mutant499'
p883
F0.00026591265099058743
sS'mutant498'
p884
F0.0011545381039172198
sS'mutant701'
p885
F0.0008433386761788258
sS'mutant700'
p886
F0.000362922106900967
sS'mutant703'
p887
F0.0003218736073531284
sS'mutant702'
p888
F0.0007512738770017423
sS'mutant705'
p889
F0.0003133970529531923
sS'mutant704'
p890
F0.0007081062388539196
sS'mutant259'
p891
F0.000320696308130915
sS'mutant258'
p892
F0.00019857113547998412
sS'mutant257'
p893
F0.0006109398097139116
sS'mutant708'
p894
F0.0023465928097156385
sS'mutant255'
p895
F0.0006423344556396007
sS'mutant254'
p896
F0.0005476795981736479
sS'mutant253'
p897
F0.0019217447637262493
sS'mutant252'
p898
F0.0020544656293771005
sS'mutant251'
p899
F0.00023082913416862976
sS'mutant250'
p900
F0.00038317165352303654
sS'mutant1211'
p901
F0.0006728657488023335
sS'mutant1210'
p902
F0.00010572147015475833
sS'mutant1213'
p903
F0.0010364942352366286
sS'mutant1212'
p904
F0.0011785550080503722
sS'mutant1215'
p905
F0.0003765787778786418
sS'mutant1214'
p906
F0.00019668745672444277
sS'mutant1217'
p907
F0.00036935800931573327
sS'mutant1216'
p908
F0.00042319982707829027
sS'mutant1219'
p909
F0.00044910040996698383
sS'mutant1218'
p910
F0.0004942302134851621
sS'mutant923'
p911
F0.00014135439328041556
sS'mutant922'
p912
F0.0003218736073531284
sS'mutant925'
p913
F0.0002905574480422534
sS'mutant924'
p914
F0.0006842463079503959
sS'mutant927'
p915
F0.00044431272646331624
sS'mutant926'
p916
F0.00043748439097447884
sS'mutant969'
p917
F0.0017052786800686225
sS'mutant968'
p918
F0.00025500301153141044
sS'mutant1369'
p919
F0.00017165022659870562
sS'mutant1368'
p920
F0.0012961279570420782
sS'mutant1365'
p921
F0.0016992352107279272
sS'mutant1364'
p922
F0.001630480936150668
sS'mutant1367'
p923
F0.0010765224087918822
sS'mutant1366'
p924
F0.0005746005070549263
sS'mutant1361'
p925
F0.0009468625211187858
sS'mutant1360'
p926
F0.000602620228543604
sS'mutant1363'
p927
F0.0003814449479971236
sS'mutant1362'
p928
F0.0008143771153123775
sS'mutant721'
p929
F0.0014898329224035803
sS'mutant1181'
p930
F0.00040679612458211764
sS'mutant1180'
p931
F0.0005189534971516423
sS'mutant1183'
p932
F0.00020696920326510596
sS'mutant1182'
p933
F0.000269993954960927
sS'mutant1185'
p934
F0.0008313302241122497
sS'mutant1184'
p935
F0.00015077278705812232
sS'mutant1187'
p936
F0.00013272086565085104
sS'mutant1186'
p937
F0.0014125236068115708
sS'mutant1189'
p938
F0.001937834519763165
sS'mutant1188'
p939
F0.00023420405860564135
sS'mutant1486'
p940
F0.0003827007338341512
sS'mutant910'
p941
F0.0008901951852229168
sS'mutant911'
p942
F0.00026661903052391543
sS'mutant798'
p943
F0.0009153893885782825
sS'mutant799'
p944
F0.0006468081926840115
sS'mutant957'
p945
F0.00039996778909328023
sS'mutant796'
p946
F0.00011411953793988019
sS'mutant797'
p947
F0.0011539886976135202
sS'mutant98'
p948
F0.0005358281193367002
sS'mutant99'
p949
F0.001428770336078115
sS'mutant92'
p950
F0.0009626383306964447
sS'mutant93'
p951
F0.0018222237361418146
sS'mutant90'
p952
F0.00034800965008626464
sS'mutant91'
p953
F0.0014107969012856578
sS'mutant96'
p954
F0.001510474902099721
sS'mutant97'
p955
F0.0002272972365019897
sS'mutant94'
p956
F0.00016395853834691177
sS'mutant95'
p957
F0.00021379753875394337
sS'mutant398'
p958
F0.0004396820161892771
sS'mutant399'
p959
F0.0012382048353091815
sS'mutant396'
p960
F0.00023797141611672405
sS'mutant397'
p961
F0.00034636143117516594
sS'mutant394'
p962
F0.0014385811629298929
sS'mutant395'
p963
F0.0005736586676771556
sS'mutant392'
p964
F0.00046393438016687193
sS'mutant393'
p965
F0.00010336687171033164
sS'mutant390'
p966
F9.936405435480628e-05
sS'mutant391'
p967
F0.0006982169253873275
sS'mutant668'
p968
F0.0012480156621609594
sS'mutant669'
p969
F0.0002670899502128008
sS'mutant666'
p970
F0.0011639564976949266
sS'mutant667'
p971
F0.0008230106429419421
sS'mutant664'
p972
F0.0003342744924937756
sS'mutant665'
p973
F0.00016906016830983627
sS'mutant662'
p974
F0.001228158548612961
sS'mutant663'
p975
F0.0010936324908213829
sS'mutant660'
p976
F0.0003192050624494448
sS'mutant661'
p977
F0.0003691225494712906
sS'mutant806'
p978
F0.00023161400031677197
sS'mutant807'
p979
F0.0002146608915168998
sS'mutant804'
p980
F0.001173924297776333
sS'mutant805'
p981
F0.0008069208869050263
sS'mutant802'
p982
F0.0002990340024421895
sS'mutant803'
p983
F0.000696647193091043
sS'mutant800'
p984
F0.0009907365387999366
sS'mutant801'
p985
F0.000492817454418506
sS'mutant918'
p986
F0.0007007284970613827
sS'mutant808'
p987
F0.00032524853179013996
sS'mutant809'
p988
F0.0012951076310494932
sS'mutant492'
p989
F0.000375950884960128
sS'mutant482'
p990
F0.0010952807097324815
sS'mutant483'
p991
F0.0014673857505667126
sS'mutant480'
p992
F0.0008821895505118661
sS'mutant481'
p993
F0.0002316924869315862
sS'mutant486'
p994
F0.0001123928324139673
sS'mutant487'
p995
F0.00023710806335376758
sS'mutant484'
p996
F0.0007902032379495968
sS'mutant485'
p997
F0.0006349567138470638
sS'mutant919'
p998
F0.0005107124025961489
sS'mutant488'
p999
F0.0007247454011945349
sS'mutant489'
p1000
F0.0017207405431870243
sS'mutant712'
p1001
F0.0023241456378787703
sS'mutant713'
p1002
F0.00023027972786493017
sS'mutant242'
p1003
F0.0008428677564899404
sS'mutant711'
p1004
F0.0005621996219142791
sS'mutant244'
p1005
F0.0005039625537221257
sS'mutant245'
p1006
F0.0001886033353985778
sS'mutant246'
p1007
F0.0008786576528452261
sS'mutant715'
p1008
F0.0012104990602797609
sS'mutant248'
p1009
F0.000663525841639441
sS'mutant249'
p1010
F0.0007389514784759092
sS'mutant718'
p1011
F0.0009996055262739437
sS'mutant719'
p1012
F0.00011812235529540557
sS'mutant1224'
p1013
F0.0001363312499323053
sS'mutant1225'
p1014
F0.0017057495997575077
sS'mutant1226'
p1015
F0.00039894746310069535
sS'mutant1227'
p1016
F0.0002987985425977468
sS'mutant1220'
p1017
F0.00014622056339889738
sS'mutant1221'
p1018
F0.0003597826423083981
sS'mutant1222'
p1019
F0.0004173133309672235
sS'mutant1223'
p1020
F0.0002132481324502438
sS'mutant932'
p1021
F0.0009699375858741675
sS'mutant933'
p1022
F0.002102813384102662
sS'mutant930'
p1023
F0.0012228214588055938
sS'mutant931'
p1024
F0.0003611954013750541
sS'mutant1228'
p1025
F0.0008711229378230607
sS'mutant1229'
p1026
F0.00048033808266304456
sS'mutant934'
p1027
F0.0003044495788643709
sS'mutant935'
p1028
F0.0003786194298638116
sS'mutant1422'
p1029
F0.0015415556015661532
sS'mutant1423'
p1030
F0.0001332702719545506
sS'mutant1420'
p1031
F0.0006188669578101481
sS'mutant1421'
p1032
F0.00024291607285002007
sS'mutant1426'
p1033
F0.0013408653274861852
sS'mutant1427'
p1034
F0.000640293803654431
sS'mutant1424'
p1035
F0.0006380961784396328
sS'mutant1425'
p1036
F0.0009746467827630208
sS'mutant1358'
p1037
F0.0010530549109624295
sS'mutant1359'
p1038
F0.0016360534858024778
sS'mutant1428'
p1039
F0.0015100039824108356
sS'mutant1429'
p1040
F0.0008452223549343671
sS'mutant707'
p1041
F0.00042940026964861385
sS'mutant706'
p1042
F0.001235222343946241
sS'mutant709'
p1043
F0.0002623807533239474
sS'mutant256'
p1044
F0.0008434956494084542
sS'mutant319'
p1045
F0.0009412899714669761
sS'mutant929'
p1046
F0.0002620668068646905
sS'mutant928'
p1047
F0.00045145500841141053
sS'mutant921'
p1048
F0.000526252752329365
sS'mutant920'
p1049
F0.0016072488981656579
sS'mutant89'
p1050
F0.0009371301808818222
sS'mutant88'
p1051
F0.0006272650255952699
sS'mutant85'
p1052
F0.0002050070378947504
sS'mutant84'
p1053
F0.0006134513813879667
sS'mutant87'
p1054
F0.00031355402618282074
sS'mutant86'
p1055
F0.00128129398684219
sS'mutant81'
p1056
F0.0002586918824276789
sS'mutant80'
p1057
F0.0012439343581906199
sS'mutant83'
p1058
F0.0005735801810623414
sS'mutant82'
p1059
F0.0005869229055807594
sS'mutant0'
p1060
F0.0006439041879358852
sS'mutant1'
p1061
F0.0002067337434206633
sS'mutant2'
p1062
F0.0004777480243741752
sS'mutant653'
p1063
F0.0014454879850335444
sS'mutant652'
p1064
F0.0011523404787024216
sS'mutant651'
p1065
F0.0006964902198614146
sS'mutant401'
p1066
F0.0003878808504118899
sS'mutant657'
p1067
F0.0004282229704264005
sS'mutant656'
p1068
F0.00043206881455229744
sS'mutant655'
p1069
F0.0005888065843363007
sS'mutant654'
p1070
F0.0007144636546538717
sS'mutant129'
p1071
F0.0003057838513162127
sS'mutant406'
p1072
F0.00041904003649313645
sS'mutant659'
p1073
F0.000778273272497835
sS'mutant658'
p1074
F0.00034534110518258106
sS'mutant407'
p1075
F0.00012942442782865366
sS'mutant404'
p1076
F0.00034337893981222547
sS'mutant405'
p1077
F0.0010138900901701324
sS'mutant235'
p1078
F0.0010276252477626213
sS'mutant234'
p1079
F0.0014669148308778272
sS'mutant237'
p1080
F0.0008816401442081666
sS'mutant724'
p1081
F0.0003592332360046985
sS'mutant231'
p1082
F0.0013874078900710195
sS'mutant230'
p1083
F0.0004624431344854017
sS'mutant233'
p1084
F0.0001605836139099002
sS'mutant232'
p1085
F0.000151714626435893
sS'mutant239'
p1086
F0.00012126181988797448
sS'mutant238'
p1087
F0.0004134674868413266
sS'mutant729'
p1088
F0.00021725094980576919
sS'mutant728'
p1089
F0.0005608653494624373
sS'mutant909'
p1090
F0.00147774598372219
sS'mutant908'
p1091
F0.00032273696011608484
sS'mutant907'
p1092
F0.0006234976680841872
sS'mutant906'
p1093
F0.0007925578363940235
sS'mutant905'
p1094
F0.0003445562390344388
sS'mutant904'
p1095
F0.0004278305373523294
sS'mutant903'
p1096
F0.000712815435742773
sS'mutant902'
p1097
F0.0011125477649916106
sS'mutant901'
p1098
F0.0003493439225381064
sS'mutant900'
p1099
F0.0007584161589498365
sS'mutant1347'
p1100
F9.3634531473368e-05
sS'mutant348'
p1101
F0.0002508432209462566
sS'mutant1345'
p1102
F0.0002914992874200241
sS'mutant1344'
p1103
F0.00024676191697591704
sS'mutant1343'
p1104
F0.0014546709189668084
sS'mutant1342'
p1105
F0.0005997162237954777
sS'mutant1437'
p1106
F0.00032744615700493825
sS'mutant1436'
p1107
F0.00019739383625777077
sS'mutant1439'
p1108
F0.0017388709512091097
sS'mutant832'
p1109
F0.00012589253016201364
sS'mutant343'
p1110
F0.002419820821337308
sS'mutant342'
p1111
F0.0009534553967631807
sS'mutant345'
p1112
F0.00017274903920610476
sS'mutant344'
p1113
F0.00048065202912230145
sS'mutant347'
p1114
F0.0004713121219594089
sS'mutant346'
p1115
F0.0010170295547627013
sS'mutant1239'
p1116
F0.00030154557411624463
sS'mutant1238'
p1117
F0.00095251355738541
sS'mutant1233'
p1118
F0.00038529079212302054
sS'mutant1232'
p1119
F0.0007978164395865765
sS'mutant1231'
p1120
F0.0007175246326316263
sS'mutant1230'
p1121
F0.0007002575773724973
sS'mutant1237'
p1122
F0.0002388347688796805
sS'mutant1236'
p1123
F0.0016355040794987783
sS'mutant1235'
p1124
F0.0002296518349464164
sS'mutant1234'
p1125
F0.0008702595850601043
sS'mutant954'
p1126
F0.00010430871108810232
sS'mutant878'
p1127
F0.00045223987455955277
sS'mutant955'
p1128
F0.0020559568750585706
sS'mutant204'
p1129
F0.0013103340343234525
sS'mutant205'
p1130
F0.0005070235316998804
sS'mutant206'
p1131
F0.0010470114416217344
sS'mutant207'
p1132
F0.00014567115709519782
sS'mutant200'
p1133
F0.0006429623485581145
sS'mutant201'
p1134
F0.00018632722356896534
sS'mutant202'
p1135
F0.0006854236071726092
sS'mutant751'
p1136
F0.000260497074568406
sS'mutant950'
p1137
F0.0009919923246369641
sS'mutant951'
p1138
F0.00018593479049489422
sS'mutant70'
p1139
F0.0006198087971879188
sS'mutant71'
p1140
F0.0010470899282365486
sS'mutant72'
p1141
F0.00135099010079722
sS'mutant73'
p1142
F0.0009959951419924896
sS'mutant74'
p1143
F0.000455143879307679
sS'mutant75'
p1144
F0.0005565485856476551
sS'mutant76'
p1145
F0.00013303481211010792
sS'mutant77'
p1146
F0.0012291003879907317
sS'mutant78'
p1147
F7.707385574756695e-05
sS'mutant79'
p1148
F0.00011545381039172198
sS'mutant952'
p1149
F0.00016482189110986824
sS'mutant938'
p1150
F0.0007355765540388977
sS'mutant976'
p1151
F0.00019127188030226136
sS'mutant1063'
p1152
F0.00016654859663578115
sS'mutant974'
p1153
F0.0016591285505578592
sS'mutant975'
p1154
F8.798349520674395e-05
sS'mutant972'
p1155
F0.0017437371213275916
sS'mutant973'
p1156
F0.0007154839806464566
sS'mutant644'
p1157
F0.0015756972790103403
sS'mutant133'
p1158
F0.001011692464955334
sS'mutant130'
p1159
F0.0005075729380035799
sS'mutant131'
p1160
F0.0007138357617353579
sS'mutant136'
p1161
F0.0005574904250254258
sS'mutant137'
p1162
F0.0003906278819303877
sS'mutant134'
p1163
F0.0003054699048569558
sS'mutant135'
p1164
F0.0008664922275490216
sS'mutant138'
p1165
F0.00024511369806481833
sS'mutant139'
p1166
F0.0003141034324865203
sS'mutant648'
p1167
F0.0006465727328395689
sS'mutant637'
p1168
F0.0004823787346482144
sS'mutant956'
p1169
F0.0011656832032208395
sS'mutant738'
p1170
F0.00042398469322643245
sS'mutant739'
p1171
F0.00037116320145646044
sS'mutant730'
p1172
F0.0006172187388990494
sS'mutant731'
p1173
F0.0005263312389441792
sS'mutant732'
p1174
F0.00040310725368584917
sS'mutant733'
p1175
F0.0005578828580994968
sS'mutant734'
p1176
F0.0005462668391069919
sS'mutant735'
p1177
F0.0009405051053188338
sS'mutant736'
p1178
F0.0001762809368727448
sS'mutant737'
p1179
F0.0011094867870138558
sS'mutant226'
p1180
F0.00012228214588055937
sS'mutant227'
p1181
F0.0005462668391069919
sS'mutant224'
p1182
F0.0026117205945580834
sS'mutant225'
p1183
F0.0004995673032925291
sS'mutant222'
p1184
F0.0005650251400475912
sS'mutant223'
p1185
F0.000898671739622853
sS'mutant220'
p1186
F0.00031794927661241726
sS'mutant221'
p1187
F0.0003009961678125451
sS'mutant228'
p1188
F0.0006288347578915544
sS'mutant229'
p1189
F0.0009831233371629569
sS'mutant1088'
p1190
F0.00018161802668011196
sS'mutant1089'
p1191
F0.00010556449692512989
sS'mutant912'
p1192
F0.0025171442237069447
sS'mutant913'
p1193
F0.0007254517807278629
sS'mutant914'
p1194
F0.000894433462422885
sS'mutant915'
p1195
F0.0009886174001999524
sS'mutant916'
p1196
F0.0003183417096864884
sS'mutant917'
p1197
F0.0012462104700202324
sS'mutant1080'
p1198
F0.0003359227114048743
sS'mutant1081'
p1199
F0.0005989313576473355
sS'mutant1082'
p1200
F0.0007833749024607594
sS'mutant1083'
p1201
F0.00016113302021359975
sS'mutant1084'
p1202
F0.0017242724408536643
sS'mutant1085'
p1203
F0.0004273596176634441
sS'mutant1086'
p1204
F0.0005451680264995927
sS'mutant1087'
p1205
F0.00044392029338924513
sS'mutant1404'
p1206
F0.0001845220314282382
sS'mutant1405'
p1207
F0.0012035922381761091
sS'mutant1406'
p1208
F0.0008707305047489896
sS'mutant1407'
p1209
F0.001274936571042238
sS'mutant1400'
p1210
F0.0010336687171033166
sS'mutant1401'
p1211
F0.0017877681122383709
sS'mutant1402'
p1212
F0.0006551277738543191
sS'mutant1403'
p1213
F0.0005142443002627889
sS'mutant352'
p1214
F0.0009144475492005118
sS'mutant353'
p1215
F0.0002647353517683741
sS'mutant350'
p1216
F0.00030594082454584115
sS'mutant351'
p1217
F0.0007997001183421178
sS'mutant1408'
p1218
F0.0003086878560643389
sS'mutant1409'
p1219
F0.0014878707570332248
sS'mutant354'
p1220
F0.0010675749347030608
sS'mutant823'
p1221
F0.0012857677238866006
sS'mutant1398'
p1222
F0.0015877057310769165
sS'mutant1399'
p1223
F0.001635818025958035
sS'mutant1394'
p1224
F0.0007869852867422137
sS'mutant1395'
p1225
F0.0001305232404360528
sS'mutant1396'
p1226
F0.0003721835274490453
sS'mutant1397'
p1227
F0.002020873358236613
sS'mutant1390'
p1228
F0.002009335825858922
sS'mutant1391'
p1229
F0.00047068422904089516
sS'mutant1392'
p1230
F0.0004900704229000082
sS'mutant1393'
p1231
F0.0001856208440356373
sS'mutant949'
p1232
F0.00023569530428711158
sS'mutant1248'
p1233
F0.0009878325340518103
sS'mutant1249'
p1234
F0.0007609277306238917
sS'mutant1246'
p1235
F0.00034055342167891347
sS'mutant1247'
p1236
F0.0009689957464963968
sS'mutant1244'
p1237
F0.0015060011650553102
sS'mutant1245'
p1238
F0.0006328375752470798
sS'mutant1242'
p1239
F0.0002597122084202638
sS'mutant1243'
p1240
F0.002380656000545011
sS'mutant1240'
p1241
F0.0003934534000636997
sS'mutant1241'
p1242
F0.0002196840348650101
sS'mutant821'
p1243
F0.0007883195591940555
sS'mutant1465'
p1244
F0.0004445481863077589
sS'mutant1017'
p1245
F0.0003269752373160529
sS'mutant371'
p1246
F0.00027187763371646837
sS'mutant1019'
p1247
F0.0019267679070743597
sS'mutant1018'
p1248
F0.00036072448168616875
sS'mutant1341'
p1249
F0.0003958079985081264
sS'mutant1340'
p1250
F8.916079442895729e-05
sS'mutant843'
p1251
F0.00019833567563554144
sS'mutant63'
p1252
F0.0001780861290134719
sS'mutant62'
p1253
F0.000659679997513544
sS'mutant61'
p1254
F0.0009405051053188338
sS'mutant60'
p1255
F0.001008866946822022
sS'mutant67'
p1256
F0.0014910887082406079
sS'mutant66'
p1257
F0.0013720245135674318
sS'mutant65'
p1258
F0.00037979672908602496
sS'mutant64'
p1259
F0.00030154557411624463
sS'mutant69'
p1260
F0.0008945904356525134
sS'mutant68'
p1261
F0.0013958059578561412
sS'mutant839'
p1262
F0.002474525991862822
sS'mutant1016'
p1263
F0.00042382771999680403
sS'mutant945'
p1264
F0.0005961843261288376
sS'mutant107'
p1265
F0.0001582290154654735
sS'mutant106'
p1266
F0.0003232078798049702
sS'mutant105'
p1267
F0.0016722358152318345
sS'mutant104'
p1268
F0.00044054536895223354
sS'mutant103'
p1269
F0.0005275085381663925
sS'mutant102'
p1270
F0.00037563693850087114
sS'mutant101'
p1271
F0.00021897765533168207
sS'mutant100'
p1272
F0.00013311329872492216
sS'mutant109'
p1273
F0.001048581173918019
sS'mutant108'
p1274
F0.00022988729479085908
sS'mutant847'
p1275
F0.00024024752794633652
sS'mutant944'
p1276
F0.0001578365823914024
sS'mutant699'
p1277
F0.0007338498485129848
sS'mutant698'
p1278
F0.00047421612670753516
sS'mutant697'
p1279
F0.001522404867551483
sS'mutant696'
p1280
F0.0005035701206480545
sS'mutant695'
p1281
F0.00019386193859113074
sS'mutant694'
p1282
F0.0008704165582897327
sS'mutant693'
p1283
F0.00033953309568632853
sS'mutant692'
p1284
F0.000583626467758562
sS'mutant691'
p1285
F0.00014543569725075517
sS'mutant690'
p1286
F0.0005552143131958133
sS'mutant219'
p1287
F0.0002950311850866641
sS'mutant218'
p1288
F0.0009745682961482066
sS'mutant749'
p1289
F0.001042302244732881
sS'mutant748'
p1290
F0.0011842060443169962
sS'mutant745'
p1291
F0.0008324290367196488
sS'mutant744'
p1292
F0.00020453611820586505
sS'mutant211'
p1293
F0.000711402676676117
sS'mutant210'
p1294
F0.00028247332671638847
sS'mutant217'
p1295
F0.00012134030650278871
sS'mutant216'
p1296
F0.0003072750969976829
sS'mutant215'
p1297
F0.0001920567464504036
sS'mutant214'
p1298
F0.00042045279555979245
sS'mutant589'
p1299
F0.0007560615605054098
sS'mutant588'
p1300
F0.00046048096911504617
sS'mutant583'
p1301
F0.0008898027521488458
sS'mutant582'
p1302
F0.0002715636872572115
sS'mutant581'
p1303
F0.00021756489626502607
sS'mutant580'
p1304
F0.0010087884602072079
sS'mutant587'
p1305
F0.0004187260900338795
sS'mutant586'
p1306
F0.0012878083758717704
sS'mutant585'
p1307
F0.00040381363321917717
sS'mutant584'
p1308
F0.0004888146370629807
sS'mutant965'
p1309
F0.000966248714977899
sS'mutant132'
p1310
F0.00020453611820586505
sS'mutant967'
p1311
F0.0017648500207126177
sS'mutant966'
p1312
F0.0003293298357604796
sS'mutant961'
p1313
F0.00025657274382769485
sS'mutant960'
p1314
F0.00026183134702024784
sS'mutant1099'
p1315
F0.0005212296089812548
sS'mutant1098'
p1316
F0.0021293418599098693
sS'mutant1097'
p1317
F0.00035899777616025586
sS'mutant1096'
p1318
F0.001327444116352953
sS'mutant1095'
p1319
F0.00013295632549529371
sS'mutant1094'
p1320
F0.000163330645428398
sS'mutant1093'
p1321
F8.821895505118661e-05
sS'mutant1092'
p1322
F0.00022423625852423503
sS'mutant1091'
p1323
F0.0010182068539849145
sS'mutant1090'
p1324
F0.0008707305047489896
sS'mutant647'
p1325
F0.001090885459302885
sS'mutant833'
p1326
F0.00022643388373903327
sS'mutant641'
p1327
F0.0005278224846256495
sS'mutant1419'
p1328
F0.0008088045656605676
sS'mutant1418'
p1329
F0.00042257193415977645
sS'mutant642'
p1330
F0.0006548923140098765
sS'mutant1413'
p1331
F0.0003079814765310109
sS'mutant1412'
p1332
F0.0004106419687080146
sS'mutant1411'
p1333
F0.0002046930914354935
sS'mutant643'
p1334
F0.00021858522225761095
sS'mutant1417'
p1335
F0.0005903763166325852
sS'mutant1416'
p1336
F0.00038937209609336013
sS'mutant1415'
p1337
F0.0005112618088998484
sS'mutant1414'
p1338
F0.000758259185720208
sS'mutant369'
p1339
F0.00045522236592249323
sS'mutant368'
p1340
F0.0002611249674869198
sS'mutant367'
p1341
F0.00021042261431693178
sS'mutant366'
p1342
F0.00020963774816878955
sS'mutant365'
p1343
F0.0005842543606770758
sS'mutant364'
p1344
F0.0014837894530628853
sS'mutant363'
p1345
F0.001134524017139593
sS'mutant362'
p1346
F0.002325087477256541
sS'mutant361'
p1347
F0.00037650029126382755
sS'mutant360'
p1348
F0.0003683376833231484
sS'mutant649'
p1349
F0.0008123364633272077
sS'mutant1383'
p1350
F0.0009231595634448906
sS'mutant1382'
p1351
F0.00022635539712421903
sS'mutant1381'
p1352
F0.002090490985576829
sS'mutant1380'
p1353
F0.0012847473978940158
sS'mutant1387'
p1354
F0.0015239745998477674
sS'mutant1386'
p1355
F0.0004490219233521696
sS'mutant1385'
p1356
F0.0012324753124277432
sS'mutant1384'
p1357
F0.00018577781726526578
sS'mutant1389'
p1358
F0.0022273716418128335
sS'mutant1388'
p1359
F0.0002610464808721056
sS'mutant1259'
p1360
F9.46548574659529e-05
sS'mutant1258'
p1361
F0.00022203863330943677
sS'mutant1255'
p1362
F0.0005528597147513866
sS'mutant1254'
p1363
F0.0010984201743250504
sS'mutant1257'
p1364
F0.0007097544577650183
sS'mutant1256'
p1365
F0.0007868283135125853
sS'mutant1251'
p1366
F0.0007838458221496447
sS'mutant1250'
p1367
F0.0006351921736915065
sS'mutant1253'
p1368
F0.000291813233879281
sS'mutant1252'
p1369
F0.00014637753662852585
sS'mutant859'
p1370
F0.0002805111613460329
sS'mutant122'
p1371
F0.00015603139025067525
sS'mutant835'
p1372
F0.00044949284304105495
sS'mutant983'
p1373
F0.0018007968902975318
sS'mutant1348'
p1374
F0.0006325236287878229
sS'mutant56'
p1375
F0.0002846709519311867
sS'mutant57'
p1376
F0.00036001810215284075
sS'mutant54'
p1377
F0.0011105071130064407
sS'mutant55'
p1378
F0.00023640168382043958
sS'mutant52'
p1379
F0.0015909236822842995
sS'mutant53'
p1380
F0.00013311329872492216
sS'mutant50'
p1381
F0.0008256007012308114
sS'mutant51'
p1382
F0.0013042905649827572
sS'mutant58'
p1383
F0.002492263966810836
sS'mutant59'
p1384
F0.00025484603830178197
sS'mutant850'
p1385
F0.0003294083223752938
sS'mutant118'
p1386
F0.001886425787059849
sS'mutant119'
p1387
F0.0004092292096413586
sS'mutant110'
p1388
F0.0005662809258846187
sS'mutant111'
p1389
F0.0003974562174192251
sS'mutant112'
p1390
F0.002322575905582486
sS'mutant113'
p1391
F0.0005422640217514665
sS'mutant114'
p1392
F0.0007670496865794011
sS'mutant115'
p1393
F0.0007478989525647306
sS'mutant116'
p1394
F0.0015279774172032928
sS'mutant117'
p1395
F9.700945591037959e-05
sS'mutant680'
p1396
F0.0019518051372000968
sS'mutant681'
p1397
F0.00048638155200373973
sS'mutant682'
p1398
F0.0001797343479245706
sS'mutant683'
p1399
F0.0002655202179165163
sS'mutant684'
p1400
F0.0008011128774087739
sS'mutant685'
p1401
F0.0002033588189836517
sS'mutant686'
p1402
F0.0002855343046941432
sS'mutant687'
p1403
F0.0012990319617902043
sS'mutant688'
p1404
F0.0015186375100404003
sS'mutant689'
p1405
F0.0007886335056533124
sS'mutant636'
p1406
F0.00022745420973161815
sS'mutant187'
p1407
F0.0007703461244015984
sS'mutant186'
p1408
F0.0011284020611840835
sS'mutant184'
p1409
F0.0001636445918876549
sS'mutant208'
p1410
F0.0004575769643669199
sS'mutant209'
p1411
F0.0003565646911010149
sS'mutant758'
p1412
F0.00024691889020554545
sS'mutant759'
p1413
F0.00017714428963570123
sS'mutant756'
p1414
F0.0007340853083574274
sS'mutant757'
p1415
F0.0003024089268792011
sS'mutant754'
p1416
F0.000599794710410292
sS'mutant755'
p1417
F0.0006548138273950623
sS'mutant752'
p1418
F0.00040467698598213364
sS'mutant753'
p1419
F0.0005742080739808553
sS'mutant750'
p1420
F0.00032454215225681196
sS'mutant203'
p1421
F0.0003697504423898044
sS'mutant598'
p1422
F0.0002060273638873353
sS'mutant599'
p1423
F0.0005014509820480705
sS'mutant594'
p1424
F0.00041982490264127863
sS'mutant595'
p1425
F0.0006524592289506356
sS'mutant596'
p1426
F0.0006354276335359491
sS'mutant597'
p1427
F0.000387566903952633
sS'mutant590'
p1428
F0.001164505903998626
sS'mutant591'
p1429
F0.0017530770284904843
sS'mutant592'
p1430
F0.0001660776769468958
sS'mutant593'
p1431
F0.0004873233913815104
sS'mutant1062'
p1432
F0.0007017488230539675
sS'mutant1321'
p1433
F0.00035201246744179
sS'mutant1060'
p1434
F0.00029173474726446676
sS'mutant1061'
p1435
F8.853290151044351e-05
sS'mutant1066'
p1436
F0.0008330569296381626
sS'mutant1067'
p1437
F0.0003617448076787537
sS'mutant1064'
p1438
F0.0002944817787829646
sS'mutant1320'
p1439
F0.0005483074910921617
sS'mutant1068'
p1440
F0.0012889856750939838
sS'mutant1069'
p1441
F0.0003109639678939514
sS'mutant1491'
p1442
F0.001740990089809094
sS'mutant978'
p1443
F0.0020442623694512515
sS'mutant979'
p1444
F0.0013038981319086862
sS'mutant1490'
p1445
F0.0004954075127073754
sS'mutant1497'
p1446
F0.0001937834519763165
sS'mutant1496'
p1447
F0.00045875426358913323
sS'mutant1495'
p1448
F0.0010671040150141754
sS'mutant1468'
p1449
F0.00036684643764167815
sS'mutant1469'
p1450
F0.00037744213064159826
sS'mutant1466'
p1451
F0.00041566511205612486
sS'mutant1467'
p1452
F0.000598774384417707
sS'mutant1464'
p1453
F0.0004377198508189215
sS'mutant1326'
p1454
F0.0006416280761062727
sS'mutant1462'
p1455
F0.0009033809365117064
sS'mutant1463'
p1456
F0.00016937411476909318
sS'mutant1460'
p1457
F0.0006870718260837079
sS'mutant1461'
p1458
F0.0005481505178625332
sS'mutant370'
p1459
F0.0007316522232981865
sS'mutant1329'
p1460
F0.00044588245875960066
sS'mutant372'
p1461
F0.0009657777952890136
sS'mutant373'
p1462
F0.0008484403061417503
sS'mutant374'
p1463
F0.0004403883957226051
sS'mutant375'
p1464
F0.000763517788912761
sS'mutant376'
p1465
F0.0003071966103828687
sS'mutant377'
p1466
F7.17367659401998e-05
sS'mutant378'
p1467
F0.00210705166130263
sS'mutant379'
p1468
F0.00019095793384300448
sS'mutant1499'
p1469
F0.0005111833222850342
sS'mutant852'
p1470
F0.00013334875856936483
sS'mutant1260'
p1471
F0.000933205850141111
sS'mutant1261'
p1472
F0.0011769852757540877
sS'mutant1262'
p1473
F0.0008910585379858733
sS'mutant1263'
p1474
F0.00010721271583622858
sS'mutant1264'
p1475
F0.0002663835706794727
sS'mutant1265'
p1476
F0.00016395853834691177
sS'mutant1266'
p1477
F0.00037226201406385955
sS'mutant1267'
p1478
F0.0003221090671975711
sS'mutant1268'
p1479
F0.0009532984235335522
sS'mutant1269'
p1480
F0.0001999054079318259
sS'mutant1118'
p1481
F0.0006691768779060651
sS'mutant1119'
p1482
F0.0007074783459354059
sS'mutant1112'
p1483
F0.0006278144318989695
sS'mutant1113'
p1484
F0.0008348621217788897
sS'mutant1110'
p1485
F0.00014056952713227333
sS'mutant1111'
p1486
F0.0002491950020351579
sS'mutant1116'
p1487
F0.00023216340662047153
sS'mutant1117'
p1488
F0.0008101388381124095
sS'mutant1114'
p1489
F0.00026018312810914914
sS'mutant1115'
p1490
F0.00022800361603531773
sS'mutant1288'
p1491
F0.00045059165564845406
sS'mutant1289'
p1492
F0.0008558180479342872
sS'mutant1282'
p1493
F0.00041221170100429904
sS'mutant1283'
p1494
F0.0010406540258217822
sS'mutant1280'
p1495
F0.00019025155430967648
sS'mutant1281'
p1496
F0.0009753531622963489
sS'mutant1286'
p1497
F0.0004773555913001041
sS'mutant1287'
p1498
F0.0008391003989788577
sS'mutant1284'
p1499
F0.0001636445918876549
sS'mutant1285'
p1500
F0.0005184825774627569
s.